Component: ARM Compiler 5.06 update 6 (build 750) Tool: armlink [4d35ed]

==============================================================================

Section Cross References

    main.o(i.main) refers to application.o(i.BSP_Init) for BSP_Init
    control.o(i.ADD_VOLUME) refers to usart.o(i.UARTWriteCmd) for UARTWriteCmd
    control.o(i.ADD_VOLUME) refers to control.o(.data) for ADD_VOLUME_CMD
    control.o(i.NEXT) refers to usart.o(i.UARTWriteCmd) for UARTWriteCmd
    control.o(i.NEXT) refers to control.o(.data) for NEXT_CMD
    control.o(i.PAUSE) refers to usart.o(i.UARTWriteCmd) for UARTWriteCmd
    control.o(i.PAUSE) refers to control.o(.data) for PAUSE_CMD
    control.o(i.PLAY) refers to usart.o(i.UARTWriteCmd) for UARTWriteCmd
    control.o(i.PLAY) refers to control.o(.data) for PLAY_CMD
    control.o(i.PLAYER_Init) refers to usart.o(i.UARTWriteCmd) for UARTWriteCmd
    control.o(i.PLAYER_Init) refers to control.o(.data) for LOOP
    control.o(i.PLAY_OR_PAUSE) refers to usart.o(i.UARTWriteCmd) for UARTWriteCmd
    control.o(i.PLAY_OR_PAUSE) refers to control.o(.data) for PLAY_OR_PAUSE_CMD
    control.o(i.PREVIOUS) refers to usart.o(i.UARTWriteCmd) for UARTWriteCmd
    control.o(i.PREVIOUS) refers to control.o(.data) for PREVIOUS_CMD
    control.o(i.SET_VOLUME) refers to usart.o(i.UARTWriteCmd) for UARTWriteCmd
    control.o(i.STOP) refers to usart.o(i.UARTWriteCmd) for UARTWriteCmd
    control.o(i.STOP) refers to control.o(.data) for STOP_CMD
    control.o(i.SUB_VOLUME) refers to usart.o(i.UARTWriteCmd) for UARTWriteCmd
    control.o(i.SUB_VOLUME) refers to control.o(.data) for SUB_VOLUME_CMD
    bmp.o(i.DrawPixel) refers to tft.o(i.TFT_DrawPoint) for TFT_DrawPoint
    bmp.o(i.Show_BMP) refers to ff.o(i.f_mount) for f_mount
    bmp.o(i.Show_BMP) refers to ff.o(i.f_open) for f_open
    bmp.o(i.Show_BMP) refers to ff.o(i.f_read) for f_read
    bmp.o(i.Show_BMP) refers to ff.o(i.f_lseek) for f_lseek
    bmp.o(i.Show_BMP) refers to tft.o(i.TFT_SetPos) for TFT_SetPos
    bmp.o(i.Show_BMP) refers to bmp.o(i.RGB888ToBGR565) for RGB888ToBGR565
    bmp.o(i.Show_BMP) refers to ff.o(i.f_close) for f_close
    bmp.o(i.Show_BMP) refers to bmp.o(.bss) for fs
    bmp.o(i.Show_BMP) refers to bmp.o(.data) for res
    bmp.o(i.Show_BMP) refers to tft.o(.data) for WriteData
    application.o(i.ADCRead) refers to memcpya.o(.text) for __aeabi_memcpy4
    application.o(i.ADCRead) refers to adc.o(i.ADC0_Read) for ADC0_Read
    application.o(i.ADCRead) refers to dfltui.o(.text) for __aeabi_ui2d
    application.o(i.ADCRead) refers to ddiv.o(.text) for __aeabi_ddiv
    application.o(i.ADCRead) refers to dmul.o(.text) for __aeabi_dmul
    application.o(i.ADCRead) refers to dadd.o(.text) for __aeabi_drsub
    application.o(i.ADCRead) refers to d2f.o(.text) for __aeabi_d2f
    application.o(i.ADCRead) refers to kalmanfilter.o(i.kalmanFilter) for kalmanFilter
    application.o(i.ADCRead) refers to f2d.o(.text) for __aeabi_f2d
    application.o(i.ADCRead) refers to dfixui.o(.text) for __aeabi_d2uiz
    application.o(i.ADCRead) refers to control.o(i.SET_VOLUME) for SET_VOLUME
    application.o(i.ADCRead) refers to port.o(i.vPortEnterCritical) for vPortEnterCritical
    application.o(i.ADCRead) refers to oled_i2c.o(i.OLED_ShowStr) for OLED_ShowStr
    application.o(i.ADCRead) refers to tft.o(i.num2char) for num2char
    application.o(i.ADCRead) refers to printfa.o(i.__0sprintf) for __2sprintf
    application.o(i.ADCRead) refers to port.o(i.vPortExitCritical) for vPortExitCritical
    application.o(i.ADCRead) refers to tasks.o(i.vTaskDelay) for vTaskDelay
    application.o(i.ADCRead) refers to application.o(.constdata) for .constdata
    application.o(i.ADCRead) refers to application.o(.data) for volume
    application.o(i.BEEZZERBeep) refers to queue.o(i.xQueueGenericReceive) for xQueueGenericReceive
    application.o(i.BEEZZERBeep) refers to port.o(i.vPortEnterCritical) for vPortEnterCritical
    application.o(i.BEEZZERBeep) refers to buzzer.o(i.BUZZER_Beep) for BUZZER_Beep
    application.o(i.BEEZZERBeep) refers to port.o(i.vPortExitCritical) for vPortExitCritical
    application.o(i.BEEZZERBeep) refers to application.o(.data) for BUZZER_Handle
    application.o(i.BMPDisplay) refers to printfa.o(i.__0sprintf) for __2sprintf
    application.o(i.BMPDisplay) refers to port.o(i.vPortEnterCritical) for vPortEnterCritical
    application.o(i.BMPDisplay) refers to bmp.o(i.Show_BMP) for Show_BMP
    application.o(i.BMPDisplay) refers to port.o(i.vPortExitCritical) for vPortExitCritical
    application.o(i.BMPDisplay) refers to tasks.o(i.vTaskDelay) for vTaskDelay
    application.o(i.BSP_Init) refers to sysctl.o(i.SysCtlClockFreqSet) for SysCtlClockFreqSet
    application.o(i.BSP_Init) refers to fpu.o(i.FPUEnable) for FPUEnable
    application.o(i.BSP_Init) refers to fpu.o(i.FPULazyStackingEnable) for FPULazyStackingEnable
    application.o(i.BSP_Init) refers to tft.o(i.TFT_Init) for TFT_Init
    application.o(i.BSP_Init) refers to buzzer.o(i.BUZZER_Init) for BUZZER_Init
    application.o(i.BSP_Init) refers to usart.o(i.USART0_Init) for USART0_Init
    application.o(i.BSP_Init) refers to pn532.o(i.PN532_Init) for PN532_Init
    application.o(i.BSP_Init) refers to bmp.o(i.Show_BMP) for Show_BMP
    application.o(i.BSP_Init) refers to tft.o(i.TFT_ShowString) for TFT_ShowString
    application.o(i.BSP_Init) refers to pn532.o(i.PN532_Readuid) for PN532_Readuid
    application.o(i.BSP_Init) refers to sysctl.o(.emb_text) for SysCtlDelay
    application.o(i.BSP_Init) refers to buzzer.o(i.BUZZER_Beep) for BUZZER_Beep
    application.o(i.BSP_Init) refers to usart.o(i.USART6_Init) for USART6_Init
    application.o(i.BSP_Init) refers to control.o(i.PLAYER_Init) for PLAYER_Init
    application.o(i.BSP_Init) refers to i2c.o(i.I2C0GPIOBEnable) for I2C0GPIOBEnable
    application.o(i.BSP_Init) refers to accelerator.o(i.ACCELERATOR_Init) for ACCELERATOR_Init
    application.o(i.BSP_Init) refers to adc.o(i.ADC0_Init) for ADC0_Init
    application.o(i.BSP_Init) refers to touch.o(i.TOUCH_Init) for TOUCH_Init
    application.o(i.BSP_Init) refers to led.o(i.LED_Init) for LED_Init
    application.o(i.BSP_Init) refers to pca9557.o(i.PCA9557_Init) for PCA9557_Init
    application.o(i.BSP_Init) refers to oled_i2c.o(i.OLED_Init) for OLED_Init
    application.o(i.BSP_Init) refers to infrared.o(i.INFRARED_Init) for INFRARED_Init
    application.o(i.BSP_Init) refers to timer.o(i.TimerIntInitial) for TimerIntInitial
    application.o(i.BSP_Init) refers to tft.o(i.TFT_CLEAR) for TFT_CLEAR
    application.o(i.BSP_Init) refers to application.o(i.FreeRTOS_Init) for FreeRTOS_Init
    application.o(i.BSP_Init) refers to interrupt.o(i.IntMasterEnable) for IntMasterEnable
    application.o(i.BSP_Init) refers to application.o(.data) for SysClock
    application.o(i.Command_Control) refers to event_groups.o(i.xEventGroupWaitBits) for xEventGroupWaitBits
    application.o(i.Command_Control) refers to queue.o(i.xQueueGenericSend) for xQueueGenericSend
    application.o(i.Command_Control) refers to control.o(i.PREVIOUS) for PREVIOUS
    application.o(i.Command_Control) refers to control.o(i.NEXT) for NEXT
    application.o(i.Command_Control) refers to control.o(i.PLAY_OR_PAUSE) for PLAY_OR_PAUSE
    application.o(i.Command_Control) refers to control.o(i.ADD_VOLUME) for ADD_VOLUME
    application.o(i.Command_Control) refers to control.o(i.SUB_VOLUME) for SUB_VOLUME
    application.o(i.Command_Control) refers to application.o(.data) for Command_Handle
    application.o(i.DIGITALTube) refers to pca9557.o(i.setnumber) for setnumber
    application.o(i.DIGITALTube) refers to tasks.o(i.vTaskDelay) for vTaskDelay
    application.o(i.FreeRTOS_Init) refers to port.o(i.vPortEnterCritical) for vPortEnterCritical
    application.o(i.FreeRTOS_Init) refers to queue.o(i.xQueueGenericCreate) for xQueueGenericCreate
    application.o(i.FreeRTOS_Init) refers to event_groups.o(i.xEventGroupCreate) for xEventGroupCreate
    application.o(i.FreeRTOS_Init) refers to timers.o(i.xTimerCreate) for xTimerCreate
    application.o(i.FreeRTOS_Init) refers to tasks.o(i.xTaskGetTickCount) for xTaskGetTickCount
    application.o(i.FreeRTOS_Init) refers to timers.o(i.xTimerGenericCommand) for xTimerGenericCommand
    application.o(i.FreeRTOS_Init) refers to tasks.o(i.xTaskGenericCreate) for xTaskGenericCreate
    application.o(i.FreeRTOS_Init) refers to tasks.o(i.vTaskStartScheduler) for vTaskStartScheduler
    application.o(i.FreeRTOS_Init) refers to port.o(i.vPortExitCritical) for vPortExitCritical
    application.o(i.FreeRTOS_Init) refers to application.o(.data) for InfraredReceive_Handle
    application.o(i.FreeRTOS_Init) refers to application.o(i.SDTicket) for SDTicket
    application.o(i.FreeRTOS_Init) refers to application.o(i.LEDTask) for LEDTask
    application.o(i.FreeRTOS_Init) refers to application.o(i.GravityBall) for GravityBall
    application.o(i.FreeRTOS_Init) refers to application.o(i.GETPoint) for GETPoint
    application.o(i.FreeRTOS_Init) refers to application.o(i.INFRARED) for INFRARED
    application.o(i.FreeRTOS_Init) refers to application.o(i.Command_Control) for Command_Control
    application.o(i.FreeRTOS_Init) refers to application.o(i.BMPDisplay) for BMPDisplay
    application.o(i.FreeRTOS_Init) refers to application.o(i.ADCRead) for ADCRead
    application.o(i.FreeRTOS_Init) refers to application.o(i.BEEZZERBeep) for BEEZZERBeep
    application.o(i.FreeRTOS_Init) refers to application.o(i.DIGITALTube) for DIGITALTube
    application.o(i.GETPoint) refers to tft.o(i.TFT_ShowWheel) for TFT_ShowWheel
    application.o(i.GETPoint) refers to touch.o(i.Get_Point) for Get_Point
    application.o(i.GravityBall) refers to memcpya.o(.text) for __aeabi_memcpy4
    application.o(i.GravityBall) refers to port.o(i.vPortEnterCritical) for vPortEnterCritical
    application.o(i.GravityBall) refers to tft.o(i.TFT_DrawRectangle) for TFT_DrawRectangle
    application.o(i.GravityBall) refers to port.o(i.vPortExitCritical) for vPortExitCritical
    application.o(i.GravityBall) refers to accelerator.o(i.ACCELERATOR_Read) for ACCELERATOR_Read
    application.o(i.GravityBall) refers to kalmanfilter.o(i.kalmanFilter) for kalmanFilter
    application.o(i.GravityBall) refers to tasks.o(i.vTaskDelay) for vTaskDelay
    application.o(i.GravityBall) refers to application.o(.constdata) for .constdata
    application.o(i.INFRARED) refers to queue.o(i.xQueueGenericReceive) for xQueueGenericReceive
    application.o(i.INFRARED) refers to infrared.o(i.Ir_Server) for Ir_Server
    application.o(i.INFRARED) refers to event_groups.o(i.xEventGroupSetBits) for xEventGroupSetBits
    application.o(i.INFRARED) refers to application.o(.data) for InfraredReceive_Handle
    application.o(i.LEDTask) refers to led.o(i.LED_Open) for LED_Open
    application.o(i.LEDTask) refers to tasks.o(i.vTaskDelay) for vTaskDelay
    application.o(i.LEDTask) refers to led.o(i.LED_Close) for LED_Close
    application.o(i.LED_BLINK) refers to led.o(i.LED_Open) for LED_Open
    application.o(i.LED_BLINK) refers to sysctl.o(.emb_text) for SysCtlDelay
    application.o(i.LED_BLINK) refers to led.o(i.LED_Close) for LED_Close
    application.o(i.SDTicket) refers to fatfs_port_tm4c1294.o(i.disk_timerproc) for disk_timerproc
    startup_rvmdk.o(RESET) refers to startup_rvmdk.o(STACK) for StackMem
    startup_rvmdk.o(RESET) refers to port.o(.emb_text) for vPortSVCHandler
    startup_rvmdk.o(RESET) refers to port.o(i.xPortSysTickHandler) for xPortSysTickHandler
    startup_rvmdk.o(RESET) refers to infrared.o(i.GPION_IRQ) for GPION_IRQ
    startup_rvmdk.o(RESET) refers to entry.o(.ARM.Collect$$$$00000000) for __main
    startup_rvmdk.o(RESET) refers to application.o(i.LED_BLINK) for LED_BLINK
    tft.o(i.InitGPIOLCDInterface) refers to sysctl.o(i.SysCtlGPIOAHBEnable) for SysCtlGPIOAHBEnable
    tft.o(i.InitGPIOLCDInterface) refers to gpio.o(i.GPIOPinTypeGPIOOutput) for GPIOPinTypeGPIOOutput
    tft.o(i.InitGPIOLCDInterface) refers to gpio.o(i.GPIOPinWrite) for GPIOPinWrite
    tft.o(i.InitGPIOLCDInterface) refers to sysctl.o(.emb_text) for SysCtlDelay
    tft.o(i.SysTickHandler) refers to tft.o(.data) for g_ulTickCount
    tft.o(i.TFTLCD_EnterSleep) refers to sysctl.o(.emb_text) for SysCtlDelay
    tft.o(i.TFTLCD_EnterSleep) refers to tft.o(.data) for WriteCommand
    tft.o(i.TFTLCD_ExitSleep) refers to sysctl.o(.emb_text) for SysCtlDelay
    tft.o(i.TFTLCD_ExitSleep) refers to tft.o(.data) for WriteCommand
    tft.o(i.TFT_CLEAR) refers to tft.o(i.TFT_SetPos) for TFT_SetPos
    tft.o(i.TFT_CLEAR) refers to tft.o(.data) for WriteData
    tft.o(i.TFT_DrawCircle) refers to tft.o(i.TFT_DrawPoint) for TFT_DrawPoint
    tft.o(i.TFT_DrawHorizontalLine) refers to tft.o(i.TFT_DrawPoint) for TFT_DrawPoint
    tft.o(i.TFT_DrawLine) refers to tft.o(i.TFT_DrawPoint) for TFT_DrawPoint
    tft.o(i.TFT_DrawPoint) refers to tft.o(i.TFT_SetPos) for TFT_SetPos
    tft.o(i.TFT_DrawPoint) refers to tft.o(.data) for WriteData
    tft.o(i.TFT_DrawRectangle) refers to tft.o(i.TFT_DrawLine) for TFT_DrawLine
    tft.o(i.TFT_DrawRectangle) refers to tft.o(i.TFT_FillBlock) for TFT_FillBlock
    tft.o(i.TFT_DrawVerticalLine) refers to tft.o(i.TFT_DrawPoint) for TFT_DrawPoint
    tft.o(i.TFT_FillBlock) refers to tft.o(i.TFT_SetPos) for TFT_SetPos
    tft.o(i.TFT_FillBlock) refers to tft.o(.data) for WriteData
    tft.o(i.TFT_Init) refers to epiinit.o(i.EPIGPIOinit) for EPIGPIOinit
    tft.o(i.TFT_Init) refers to sysctl.o(i.SysCtlPeripheralEnable) for SysCtlPeripheralEnable
    tft.o(i.TFT_Init) refers to tft.o(i.InitGPIOLCDInterface) for InitGPIOLCDInterface
    tft.o(i.TFT_Init) refers to sysctl.o(.emb_text) for SysCtlDelay
    tft.o(i.TFT_Init) refers to application.o(.data) for SysClock
    tft.o(i.TFT_Init) refers to tft.o(.data) for WriteCommand
    tft.o(i.TFT_Init) refers to tft.o(i.TFT_CLEAR) for TFT_CLEAR
    tft.o(i.TFT_Init) refers to gpio.o(i.GPIOPinTypeGPIOOutput) for GPIOPinTypeGPIOOutput
    tft.o(i.TFT_Init) refers to gpio.o(i.GPIOPinWrite) for GPIOPinWrite
    tft.o(i.TFT_REFRESH_GRAM) refers to tft.o(.data) for WriteData
    tft.o(i.TFT_SetPos) refers to tft.o(.data) for WriteCommand
    tft.o(i.TFT_ShowByte) refers to tft.o(i.TFT_DrawPoint) for TFT_DrawPoint
    tft.o(i.TFT_ShowChar) refers to tft.o(i.TFT_SetPos) for TFT_SetPos
    tft.o(i.TFT_ShowChar) refers to tft.o(.constdata) for asc2_1608
    tft.o(i.TFT_ShowChar) refers to tft.o(.data) for WriteData
    tft.o(i.TFT_ShowData) refers to tft.o(i.TFT_ShowString) for TFT_ShowString
    tft.o(i.TFT_ShowName) refers to tft.o(i.TFT_ShowByte) for TFT_ShowByte
    tft.o(i.TFT_ShowName) refers to tft.o(.data) for kaiguan
    tft.o(i.TFT_ShowPicture) refers to tft.o(i.TFT_SetPos) for TFT_SetPos
    tft.o(i.TFT_ShowPicture) refers to tft.o(.data) for WriteData
    tft.o(i.TFT_ShowString) refers to tft.o(i.TFT_CLEAR) for TFT_CLEAR
    tft.o(i.TFT_ShowString) refers to tft.o(i.TFT_ShowChar) for TFT_ShowChar
    tft.o(i.TFT_ShowWheel) refers to tft.o(i.TFT_DrawCircle) for TFT_DrawCircle
    tft.o(i.TFT_ShowWheel) refers to tft.o(i.TFT_ShowName) for TFT_ShowName
    tft.o(i.TFT_ShowWheel) refers to tft.o(i.TFT_ShowChar) for TFT_ShowChar
    tft.o(i.TFT_ShowWheel) refers to tft.o(i.TFT_DrawLine) for TFT_DrawLine
    tft.o(i.WriteCommandGPIO) refers to sysctl.o(.emb_text) for SysCtlDelay
    tft.o(i.num2char) refers to ddiv.o(.text) for __aeabi_ddiv
    tft.o(i.num2char) refers to dfixi.o(.text) for __aeabi_d2iz
    tft.o(i.num2char) refers to dmul.o(.text) for __aeabi_dmul
    tft.o(i.num2char) refers to tft.o(.data) for table
    tft.o(.data) refers to tft.o(i.WriteDataGPIO) for WriteDataGPIO
    tft.o(.data) refers to tft.o(i.WriteCommandGPIO) for WriteCommandGPIO
    usart.o(i.UARTReceiveData) refers to uart.o(i.UARTCharGet) for UARTCharGet
    usart.o(i.UARTWriteCmd) refers to uart.o(i.UARTCharPut) for UARTCharPut
    usart.o(i.USART0_Init) refers to sysctl.o(i.SysCtlPeripheralEnable) for SysCtlPeripheralEnable
    usart.o(i.USART0_Init) refers to gpio.o(i.GPIOPinConfigure) for GPIOPinConfigure
    usart.o(i.USART0_Init) refers to gpio.o(i.GPIOPinTypeUART) for GPIOPinTypeUART
    usart.o(i.USART0_Init) refers to uart.o(i.UARTConfigSetExpClk) for UARTConfigSetExpClk
    usart.o(i.USART0_Init) refers to application.o(.data) for SysClock
    usart.o(i.USART6_Init) refers to sysctl.o(i.SysCtlPeripheralEnable) for SysCtlPeripheralEnable
    usart.o(i.USART6_Init) refers to gpio.o(i.GPIOPinConfigure) for GPIOPinConfigure
    usart.o(i.USART6_Init) refers to gpio.o(i.GPIOPinTypeUART) for GPIOPinTypeUART
    usart.o(i.USART6_Init) refers to uart.o(i.UARTConfigSetExpClk) for UARTConfigSetExpClk
    usart.o(i.USART6_Init) refers to application.o(.data) for SysClock
    touch.o(i.Get_Point) refers to ssi.o(i.SSIDataPut) for SSIDataPut
    touch.o(i.Get_Point) refers to gpio.o(i.GPIOPinRead) for GPIOPinRead
    touch.o(i.Get_Point) refers to memcpya.o(.text) for __aeabi_memcpy4
    touch.o(i.Get_Point) refers to sysctl.o(.emb_text) for SysCtlDelay
    touch.o(i.Get_Point) refers to ssi.o(i.SSIDataGet) for SSIDataGet
    touch.o(i.Get_Point) refers to kalmanfilter.o(i.kalmanFilter) for kalmanFilter
    touch.o(i.Get_Point) refers to touch.o(i.TOUCH_PointAdjust) for TOUCH_PointAdjust
    touch.o(i.Get_Point) refers to touch.o(i.Button_Reconize) for Button_Reconize
    touch.o(i.Get_Point) refers to event_groups.o(i.xEventGroupSetBits) for xEventGroupSetBits
    touch.o(i.Get_Point) refers to touch.o(.constdata) for .constdata
    touch.o(i.Get_Point) refers to application.o(.data) for Command_Handle
    touch.o(i.SSIinit) refers to sysctl.o(i.SysCtlPeripheralEnable) for SysCtlPeripheralEnable
    touch.o(i.SSIinit) refers to gpio.o(i.GPIOPinConfigure) for GPIOPinConfigure
    touch.o(i.SSIinit) refers to gpio.o(i.GPIOPinTypeSSI) for GPIOPinTypeSSI
    touch.o(i.SSIinit) refers to ssi.o(i.SSIConfigSetExpClk) for SSIConfigSetExpClk
    touch.o(i.SSIinit) refers to ssi.o(i.SSIEnable) for SSIEnable
    touch.o(i.SSIinit) refers to ssi.o(i.SSIDataGetNonBlocking) for SSIDataGetNonBlocking
    touch.o(i.TOUCH_Init) refers to sysctl.o(i.SysCtlPeripheralEnable) for SysCtlPeripheralEnable
    touch.o(i.TOUCH_Init) refers to gpio.o(i.GPIOPinTypeGPIOInput) for GPIOPinTypeGPIOInput
    touch.o(i.TOUCH_Init) refers to touch.o(i.SSIinit) for SSIinit
    touch.o(i.TOUCH_Init) refers to application.o(.data) for SysClock
    infrared.o(i.GPION_IRQ) refers to queue.o(i.xQueueGiveFromISR) for xQueueGiveFromISR
    infrared.o(i.GPION_IRQ) refers to gpio.o(i.GPIOIntClear) for GPIOIntClear
    infrared.o(i.GPION_IRQ) refers to application.o(.data) for startflag
    infrared.o(i.GPION_IRQ) refers to application.o(.bss) for irdata
    infrared.o(i.INFRARED_Init) refers to sysctl.o(i.SysCtlPeripheralEnable) for SysCtlPeripheralEnable
    infrared.o(i.INFRARED_Init) refers to gpio.o(i.GPIODirModeSet) for GPIODirModeSet
    infrared.o(i.INFRARED_Init) refers to gpio.o(i.GPIOPadConfigSet) for GPIOPadConfigSet
    infrared.o(i.INFRARED_Init) refers to gpio.o(i.GPIOIntRegister) for GPIOIntRegister
    infrared.o(i.INFRARED_Init) refers to gpio.o(i.GPIOIntTypeSet) for GPIOIntTypeSet
    infrared.o(i.INFRARED_Init) refers to gpio.o(i.GPIOIntEnable) for GPIOIntEnable
    infrared.o(i.INFRARED_Init) refers to interrupt.o(i.IntEnable) for IntEnable
    infrared.o(i.INFRARED_Init) refers to interrupt.o(i.IntPrioritySet) for IntPrioritySet
    infrared.o(i.INFRARED_Init) refers to gpio.o(i.GPIOIntClear) for GPIOIntClear
    infrared.o(i.INFRARED_Init) refers to infrared.o(i.GPION_IRQ) for GPION_IRQ
    infrared.o(i.Ir_Server) refers to application.o(.bss) for irdata
    infrared.o(i.Ir_Server) refers to application.o(.data) for remote_code
    epiinit.o(i.EPIGPIOinit) refers to sysctl.o(i.SysCtlPeripheralEnable) for SysCtlPeripheralEnable
    epiinit.o(i.EPIGPIOinit) refers to gpio.o(i.GPIOPinTypeEPI) for GPIOPinTypeEPI
    epiinit.o(i.EPIGPIOinit) refers to epi.o(i.EPIModeSet) for EPIModeSet
    epiinit.o(i.EPIGPIOinit) refers to epi.o(i.EPIConfigHB16Set) for EPIConfigHB16Set
    epiinit.o(i.EPIGPIOinit) refers to epi.o(i.EPIAddressMapSet) for EPIAddressMapSet
    led.o(i.LED_Close) refers to gpio.o(i.GPIOPinWrite) for GPIOPinWrite
    led.o(i.LED_Init) refers to sysctl.o(i.SysCtlPeripheralEnable) for SysCtlPeripheralEnable
    led.o(i.LED_Init) refers to gpio.o(i.GPIODirModeSet) for GPIODirModeSet
    led.o(i.LED_Init) refers to gpio.o(i.GPIOPadConfigSet) for GPIOPadConfigSet
    led.o(i.LED_Open) refers to gpio.o(i.GPIOPinWrite) for GPIOPinWrite
    timer.o(i.Timer0BIntHandler) refers to timer.o(i.TimerIntStatus) for TimerIntStatus
    timer.o(i.Timer0BIntHandler) refers to timer.o(i.TimerIntClear) for TimerIntClear
    timer.o(i.Timer0BIntHandler) refers to application.o(.data) for tcount
    timer.o(i.TimerIntInitial) refers to sysctl.o(i.SysCtlPeripheralEnable) for SysCtlPeripheralEnable
    timer.o(i.TimerIntInitial) refers to timer.o(i.TimerConfigure) for TimerConfigure
    timer.o(i.TimerIntInitial) refers to timer.o(i.TimerLoadSet) for TimerLoadSet
    timer.o(i.TimerIntInitial) refers to timer.o(i.TimerIntRegister) for TimerIntRegister
    timer.o(i.TimerIntInitial) refers to timer.o(i.TimerIntEnable) for TimerIntEnable
    timer.o(i.TimerIntInitial) refers to interrupt.o(i.IntEnable) for IntEnable
    timer.o(i.TimerIntInitial) refers to timer.o(i.TimerEnable) for TimerEnable
    timer.o(i.TimerIntInitial) refers to application.o(.data) for SysClock
    timer.o(i.TimerIntInitial) refers to timer.o(i.Timer0BIntHandler) for Timer0BIntHandler
    uartstdio.o(i.UARTStdioConfig) refers to uartstdio.o(.constdata) for g_ui32UARTPeriph
    uartstdio.o(i.UARTStdioConfig) refers to uartstdio.o(.data) for g_ui32Base
    uartstdio.o(i.UARTgetc) refers to uartstdio.o(.data) for g_ui32Base
    uartstdio.o(i.UARTgets) refers to uartstdio.o(i.UARTwrite) for UARTwrite
    uartstdio.o(i.UARTgets) refers to uartstdio.o(.data) for g_ui32Base
    uartstdio.o(i.UARTprintf) refers to uartstdio.o(i.UARTvprintf) for UARTvprintf
    uartstdio.o(i.UARTvprintf) refers to uartstdio.o(i.UARTwrite) for UARTwrite
    uartstdio.o(i.UARTvprintf) refers to uartstdio.o(.constdata) for g_pcHex
    uartstdio.o(i.UARTwrite) refers to uartstdio.o(.data) for g_ui32Base
    uartstdio.o(.constdata) refers to uartstdio.o(.conststring) for .conststring
    buzzer.o(i.BUZZER_Beep) refers to gpio.o(i.GPIOPinWrite) for GPIOPinWrite
    buzzer.o(i.BUZZER_Beep) refers to sysctl.o(.emb_text) for SysCtlDelay
    buzzer.o(i.BUZZER_Beep) refers to application.o(.data) for SysClock
    buzzer.o(i.BUZZER_Close) refers to gpio.o(i.GPIOPinWrite) for GPIOPinWrite
    buzzer.o(i.BUZZER_Init) refers to sysctl.o(i.SysCtlPeripheralEnable) for SysCtlPeripheralEnable
    buzzer.o(i.BUZZER_Init) refers to gpio.o(i.GPIODirModeSet) for GPIODirModeSet
    buzzer.o(i.BUZZER_Init) refers to gpio.o(i.GPIOPadConfigSet) for GPIOPadConfigSet
    buzzer.o(i.BUZZER_Open) refers to gpio.o(i.GPIOPinWrite) for GPIOPinWrite
    buzzer.o(i.BUZZER_Test) refers to buzzer.o(i.BUZZER_Beep) for BUZZER_Beep
    sd.o(i.Cmd_cat) refers to strlen.o(.text) for strlen
    sd.o(i.Cmd_cat) refers to uartstdio.o(i.UARTprintf) for UARTprintf
    sd.o(i.Cmd_cat) refers to strcpy.o(.text) for strcpy
    sd.o(i.Cmd_cat) refers to strcmp.o(.text) for strcmp
    sd.o(i.Cmd_cat) refers to strcat.o(.text) for strcat
    sd.o(i.Cmd_cat) refers to ff.o(i.f_open) for f_open
    sd.o(i.Cmd_cat) refers to ff.o(i.f_read) for f_read
    sd.o(i.Cmd_cat) refers to sd.o(.data) for g_cCwdBuf
    sd.o(i.Cmd_cat) refers to sd.o(.bss) for g_cTmpBuf
    sd.o(i.Cmd_cd) refers to strcpy.o(.text) for strcpy
    sd.o(i.Cmd_cd) refers to strlen.o(.text) for strlen
    sd.o(i.Cmd_cd) refers to uartstdio.o(i.UARTprintf) for UARTprintf
    sd.o(i.Cmd_cd) refers to strncpy.o(.text) for strncpy
    sd.o(i.Cmd_cd) refers to strcmp.o(.text) for strcmp
    sd.o(i.Cmd_cd) refers to strcat.o(.text) for strcat
    sd.o(i.Cmd_cd) refers to ff.o(i.f_opendir) for f_opendir
    sd.o(i.Cmd_cd) refers to sd.o(.data) for g_cCwdBuf
    sd.o(i.Cmd_cd) refers to sd.o(.bss) for g_cTmpBuf
    sd.o(i.Cmd_help) refers to uartstdio.o(i.UARTprintf) for UARTprintf
    sd.o(i.Cmd_help) refers to sd.o(.data) for g_psCmdTable
    sd.o(i.Cmd_ls) refers to ff.o(i.f_opendir) for f_opendir
    sd.o(i.Cmd_ls) refers to uartstdio.o(i.UARTprintf) for UARTprintf
    sd.o(i.Cmd_ls) refers to ff.o(i.f_readdir) for f_readdir
    sd.o(i.Cmd_ls) refers to ff.o(i.f_getfree) for f_getfree
    sd.o(i.Cmd_ls) refers to sd.o(.data) for g_cCwdBuf
    sd.o(i.Cmd_ls) refers to sd.o(.bss) for g_sDirObject
    sd.o(i.Cmd_pwd) refers to uartstdio.o(i.UARTprintf) for UARTprintf
    sd.o(i.Cmd_pwd) refers to sd.o(.data) for g_cCwdBuf
    sd.o(i.SD_Test) refers to uartstdio.o(i.UARTprintf) for UARTprintf
    sd.o(i.SD_Test) refers to ff.o(i.f_mount) for f_mount
    sd.o(i.SD_Test) refers to sd.o(i.StringFromFresult) for StringFromFresult
    sd.o(i.SD_Test) refers to uartstdio.o(i.UARTgets) for UARTgets
    sd.o(i.SD_Test) refers to cmdline.o(i.CmdLineProcess) for CmdLineProcess
    sd.o(i.SD_Test) refers to sd.o(.bss) for g_sFatFs
    sd.o(i.SD_Test) refers to sd.o(.data) for g_cCwdBuf
    sd.o(i.StringFromFresult) refers to sd.o(.data) for g_sFresultStrings
    sd.o(i.SysTickIntHandler) refers to fatfs_port_tm4c1294.o(i.disk_timerproc) for disk_timerproc
    sd.o(.data) refers to sd.o(.conststring) for .conststring
    sd.o(.data) refers to sd.o(i.Cmd_help) for Cmd_help
    sd.o(.data) refers to sd.o(i.Cmd_ls) for Cmd_ls
    sd.o(.data) refers to sd.o(i.Cmd_cd) for Cmd_cd
    sd.o(.data) refers to sd.o(i.Cmd_pwd) for Cmd_pwd
    sd.o(.data) refers to sd.o(i.Cmd_cat) for Cmd_cat
    fatfs_port_tm4c1294.o(i.chk_power) refers to fatfs_port_tm4c1294.o(.data) for PowerFlag
    fatfs_port_tm4c1294.o(i.disk_initialize) refers to fatfs_port_tm4c1294.o(i.power_on) for power_on
    fatfs_port_tm4c1294.o(i.disk_initialize) refers to fatfs_port_tm4c1294.o(i.send_initial_clock_train) for send_initial_clock_train
    fatfs_port_tm4c1294.o(i.disk_initialize) refers to fatfs_port_tm4c1294.o(i.SELECT) for SELECT
    fatfs_port_tm4c1294.o(i.disk_initialize) refers to fatfs_port_tm4c1294.o(i.send_cmd) for send_cmd
    fatfs_port_tm4c1294.o(i.disk_initialize) refers to fatfs_port_tm4c1294.o(i.rcvr_spi) for rcvr_spi
    fatfs_port_tm4c1294.o(i.disk_initialize) refers to fatfs_port_tm4c1294.o(i.DESELECT) for DESELECT
    fatfs_port_tm4c1294.o(i.disk_initialize) refers to fatfs_port_tm4c1294.o(i.set_max_speed) for set_max_speed
    fatfs_port_tm4c1294.o(i.disk_initialize) refers to fatfs_port_tm4c1294.o(i.power_off) for power_off
    fatfs_port_tm4c1294.o(i.disk_initialize) refers to fatfs_port_tm4c1294.o(.data) for Stat
    fatfs_port_tm4c1294.o(i.disk_ioctl) refers to fatfs_port_tm4c1294.o(i.chk_power) for chk_power
    fatfs_port_tm4c1294.o(i.disk_ioctl) refers to fatfs_port_tm4c1294.o(i.power_off) for power_off
    fatfs_port_tm4c1294.o(i.disk_ioctl) refers to fatfs_port_tm4c1294.o(i.power_on) for power_on
    fatfs_port_tm4c1294.o(i.disk_ioctl) refers to fatfs_port_tm4c1294.o(i.SELECT) for SELECT
    fatfs_port_tm4c1294.o(i.disk_ioctl) refers to fatfs_port_tm4c1294.o(i.send_cmd) for send_cmd
    fatfs_port_tm4c1294.o(i.disk_ioctl) refers to fatfs_port_tm4c1294.o(i.rcvr_datablock) for rcvr_datablock
    fatfs_port_tm4c1294.o(i.disk_ioctl) refers to fatfs_port_tm4c1294.o(i.wait_ready) for wait_ready
    fatfs_port_tm4c1294.o(i.disk_ioctl) refers to fatfs_port_tm4c1294.o(i.rcvr_spi) for rcvr_spi
    fatfs_port_tm4c1294.o(i.disk_ioctl) refers to fatfs_port_tm4c1294.o(i.DESELECT) for DESELECT
    fatfs_port_tm4c1294.o(i.disk_ioctl) refers to fatfs_port_tm4c1294.o(.data) for Stat
    fatfs_port_tm4c1294.o(i.disk_read) refers to fatfs_port_tm4c1294.o(i.SELECT) for SELECT
    fatfs_port_tm4c1294.o(i.disk_read) refers to fatfs_port_tm4c1294.o(i.send_cmd) for send_cmd
    fatfs_port_tm4c1294.o(i.disk_read) refers to fatfs_port_tm4c1294.o(i.rcvr_datablock) for rcvr_datablock
    fatfs_port_tm4c1294.o(i.disk_read) refers to fatfs_port_tm4c1294.o(i.send_cmd12) for send_cmd12
    fatfs_port_tm4c1294.o(i.disk_read) refers to fatfs_port_tm4c1294.o(i.DESELECT) for DESELECT
    fatfs_port_tm4c1294.o(i.disk_read) refers to fatfs_port_tm4c1294.o(i.rcvr_spi) for rcvr_spi
    fatfs_port_tm4c1294.o(i.disk_read) refers to fatfs_port_tm4c1294.o(.data) for Stat
    fatfs_port_tm4c1294.o(i.disk_status) refers to fatfs_port_tm4c1294.o(.data) for Stat
    fatfs_port_tm4c1294.o(i.disk_timerproc) refers to fatfs_port_tm4c1294.o(.data) for Timer1
    fatfs_port_tm4c1294.o(i.disk_write) refers to fatfs_port_tm4c1294.o(i.SELECT) for SELECT
    fatfs_port_tm4c1294.o(i.disk_write) refers to fatfs_port_tm4c1294.o(i.send_cmd) for send_cmd
    fatfs_port_tm4c1294.o(i.disk_write) refers to fatfs_port_tm4c1294.o(i.xmit_datablock) for xmit_datablock
    fatfs_port_tm4c1294.o(i.disk_write) refers to fatfs_port_tm4c1294.o(i.DESELECT) for DESELECT
    fatfs_port_tm4c1294.o(i.disk_write) refers to fatfs_port_tm4c1294.o(i.rcvr_spi) for rcvr_spi
    fatfs_port_tm4c1294.o(i.disk_write) refers to fatfs_port_tm4c1294.o(.data) for Stat
    fatfs_port_tm4c1294.o(i.power_off) refers to fatfs_port_tm4c1294.o(.data) for PowerFlag
    fatfs_port_tm4c1294.o(i.power_on) refers to gpio.o(i.GPIOPinConfigure) for GPIOPinConfigure
    fatfs_port_tm4c1294.o(i.power_on) refers to gpio.o(i.GPIOPadConfigSet) for GPIOPadConfigSet
    fatfs_port_tm4c1294.o(i.power_on) refers to fatfs_port_tm4c1294.o(i.send_initial_clock_train) for send_initial_clock_train
    fatfs_port_tm4c1294.o(i.power_on) refers to application.o(.data) for SysClock
    fatfs_port_tm4c1294.o(i.power_on) refers to fatfs_port_tm4c1294.o(.data) for PowerFlag
    fatfs_port_tm4c1294.o(i.rcvr_datablock) refers to fatfs_port_tm4c1294.o(i.rcvr_spi) for rcvr_spi
    fatfs_port_tm4c1294.o(i.rcvr_datablock) refers to fatfs_port_tm4c1294.o(i.rcvr_spi_m) for rcvr_spi_m
    fatfs_port_tm4c1294.o(i.rcvr_datablock) refers to fatfs_port_tm4c1294.o(.data) for Timer1
    fatfs_port_tm4c1294.o(i.rcvr_spi_m) refers to fatfs_port_tm4c1294.o(i.rcvr_spi) for rcvr_spi
    fatfs_port_tm4c1294.o(i.send_cmd) refers to fatfs_port_tm4c1294.o(i.wait_ready) for wait_ready
    fatfs_port_tm4c1294.o(i.send_cmd) refers to fatfs_port_tm4c1294.o(i.xmit_spi) for xmit_spi
    fatfs_port_tm4c1294.o(i.send_cmd) refers to fatfs_port_tm4c1294.o(i.rcvr_spi) for rcvr_spi
    fatfs_port_tm4c1294.o(i.send_cmd12) refers to fatfs_port_tm4c1294.o(i.xmit_spi) for xmit_spi
    fatfs_port_tm4c1294.o(i.send_cmd12) refers to fatfs_port_tm4c1294.o(i.rcvr_spi) for rcvr_spi
    fatfs_port_tm4c1294.o(i.send_initial_clock_train) refers to fatfs_port_tm4c1294.o(i.DESELECT) for DESELECT
    fatfs_port_tm4c1294.o(i.set_max_speed) refers to application.o(.data) for SysClock
    fatfs_port_tm4c1294.o(i.wait_ready) refers to fatfs_port_tm4c1294.o(i.rcvr_spi) for rcvr_spi
    fatfs_port_tm4c1294.o(i.wait_ready) refers to fatfs_port_tm4c1294.o(.data) for Timer2
    fatfs_port_tm4c1294.o(i.xmit_datablock) refers to fatfs_port_tm4c1294.o(i.wait_ready) for wait_ready
    fatfs_port_tm4c1294.o(i.xmit_datablock) refers to fatfs_port_tm4c1294.o(i.xmit_spi) for xmit_spi
    fatfs_port_tm4c1294.o(i.xmit_datablock) refers to fatfs_port_tm4c1294.o(i.rcvr_spi) for rcvr_spi
    accelerator.o(i.ACCELERATOR_Init) refers to accelerator.o(i.I2CSend) for I2CSend
    accelerator.o(i.ACCELERATOR_Init) refers to accelerator.o(i.I2CRead) for I2CRead
    accelerator.o(i.ACCELERATOR_Read) refers to accelerator.o(i.I2CRead) for I2CRead
    accelerator.o(i.ACCELERATOR_Test) refers to accelerator.o(i.ACCELERATOR_Read) for ACCELERATOR_Read
    accelerator.o(i.ACCELERATOR_Test) refers to uartstdio.o(i.UARTprintf) for UARTprintf
    accelerator.o(i.ACCELERATOR_Test) refers to sysctl.o(i.SysCtlClockGet) for SysCtlClockGet
    accelerator.o(i.ACCELERATOR_Test) refers to sysctl.o(.emb_text) for SysCtlDelay
    accelerator.o(i.I2CRead) refers to i2c.o(i.SINGLE_read) for SINGLE_read
    accelerator.o(i.I2CSend) refers to malloc.o(i.malloc) for malloc
    accelerator.o(i.I2CSend) refers to i2c.o(i.i2c_write) for i2c_write
    accelerator.o(i.I2CSend) refers to malloc.o(i.free) for free
    adc.o(i.ADC0_Init) refers to sysctl.o(i.SysCtlPeripheralEnable) for SysCtlPeripheralEnable
    adc.o(i.ADC0_Init) refers to gpio.o(i.GPIOPinTypeADC) for GPIOPinTypeADC
    adc.o(i.ADC0_Init) refers to adc.o(i.ADCSequenceConfigure) for ADCSequenceConfigure
    adc.o(i.ADC0_Init) refers to adc.o(i.ADCSequenceStepConfigure) for ADCSequenceStepConfigure
    adc.o(i.ADC0_Init) refers to adc.o(i.ADCSequenceEnable) for ADCSequenceEnable
    adc.o(i.ADC0_Init) refers to adc.o(i.ADCIntClear) for ADCIntClear
    adc.o(i.ADC0_Read) refers to adc.o(i.ADCProcessorTrigger) for ADCProcessorTrigger
    adc.o(i.ADC0_Read) refers to adc.o(i.ADCIntStatus) for ADCIntStatus
    adc.o(i.ADC0_Read) refers to adc.o(i.ADCIntClear) for ADCIntClear
    adc.o(i.ADC0_Read) refers to adc.o(i.ADCSequenceDataGet) for ADCSequenceDataGet
    adc.o(i.ADC0_Test) refers to adc.o(i.ADC0_Read) for ADC0_Read
    adc.o(i.ADC0_Test) refers to dfltui.o(.text) for __aeabi_ui2d
    adc.o(i.ADC0_Test) refers to ddiv.o(.text) for __aeabi_ddiv
    adc.o(i.ADC0_Test) refers to dmul.o(.text) for __aeabi_dmul
    adc.o(i.ADC0_Test) refers to dadd.o(.text) for __aeabi_drsub
    adc.o(i.ADC0_Test) refers to d2f.o(.text) for __aeabi_d2f
    adc.o(i.ADC0_Test) refers to f2d.o(.text) for __aeabi_f2d
    adc.o(i.ADC0_Test) refers to printfa.o(i.__0sprintf) for __2sprintf
    adc.o(i.ADC0_Test) refers to uartstdio.o(i.UARTprintf) for UARTprintf
    adc.o(i.EXADC_Init) refers to sysctl.o(i.SysCtlPeripheralEnable) for SysCtlPeripheralEnable
    adc.o(i.EXADC_Init) refers to sysctl.o(i.SysCtlGPIOAHBEnable) for SysCtlGPIOAHBEnable
    adc.o(i.EXADC_Init) refers to gpio.o(i.GPIOPinTypeGPIOOutput) for GPIOPinTypeGPIOOutput
    adc.o(i.EXADC_Init) refers to gpio.o(i.GPIOPinTypeGPIOInput) for GPIOPinTypeGPIOInput
    adc.o(i.EXADC_Read) refers to memseta.o(.text) for __aeabi_memclr4
    adc.o(i.EXADC_Read) refers to gpio.o(i.GPIOPinWrite) for GPIOPinWrite
    adc.o(i.EXADC_Read) refers to sysctl.o(.emb_text) for SysCtlDelay
    adc.o(i.EXADC_Read) refers to gpio.o(i.GPIOPinRead) for GPIOPinRead
    adc.o(i.EXADC_Test) refers to adc.o(i.EXADC_Read) for EXADC_Read
    adc.o(i.EXADC_Test) refers to sysctl.o(i.SysCtlClockGet) for SysCtlClockGet
    adc.o(i.EXADC_Test) refers to sysctl.o(.emb_text) for SysCtlDelay
    adc.o(i.EXADC_Test) refers to uartstdio.o(i.UARTprintf) for UARTprintf
    pca9557.o(i.I2C0DeviceInit) refers to pca9557.o(i.I2C0Send) for I2C0Send
    pca9557.o(i.I2C0MasterInit) refers to sysctl.o(i.SysCtlPeripheralEnable) for SysCtlPeripheralEnable
    pca9557.o(i.I2C0MasterInit) refers to i2c.o(i.I2CMasterInitExpClk) for I2CMasterInitExpClk
    pca9557.o(i.I2C0MasterInit) refers to i2c.o(i.I2CMasterEnable) for I2CMasterEnable
    pca9557.o(i.I2C0PinConfig) refers to sysctl.o(i.SysCtlPeripheralEnable) for SysCtlPeripheralEnable
    pca9557.o(i.I2C0PinConfig) refers to gpio.o(i.GPIOPinTypeI2C) for GPIOPinTypeI2C
    pca9557.o(i.I2C0PinConfig) refers to gpio.o(i.GPIOPinConfigure) for GPIOPinConfigure
    pca9557.o(i.I2C0PinConfig) refers to gpio.o(i.GPIOPinTypeI2CSCL) for GPIOPinTypeI2CSCL
    pca9557.o(i.I2C0Send) refers to i2c.o(i.I2CMasterSlaveAddrSet) for I2CMasterSlaveAddrSet
    pca9557.o(i.I2C0Send) refers to i2c.o(i.I2CMasterDataPut) for I2CMasterDataPut
    pca9557.o(i.I2C0Send) refers to i2c.o(i.I2CMasterControl) for I2CMasterControl
    pca9557.o(i.I2C0Send) refers to i2c.o(i.I2CMasterBusy) for I2CMasterBusy
    pca9557.o(i.I2C0Send) refers to i2c.o(i.I2CMasterErr) for I2CMasterErr
    pca9557.o(i.I2C0TubeHighSet) refers to pca9557.o(i.I2C0Send) for I2C0Send
    pca9557.o(i.I2C0TubeLowSet) refers to pca9557.o(i.I2C0Send) for I2C0Send
    pca9557.o(i.I2C0TubeSelSet) refers to pca9557.o(i.I2C0Send) for I2C0Send
    pca9557.o(i.PCA9557_Init) refers to pca9557.o(i.I2C0PinConfig) for I2C0PinConfig
    pca9557.o(i.PCA9557_Init) refers to pca9557.o(i.I2C0MasterInit) for I2C0MasterInit
    pca9557.o(i.PCA9557_Init) refers to i2c.o(i.I2CSlaveEnable) for I2CSlaveEnable
    pca9557.o(i.PCA9557_Init) refers to pca9557.o(i.I2C0DeviceInit) for I2C0DeviceInit
    pca9557.o(i.PCA9557_Show_Voltage) refers to pca9557.o(i.setnumber) for setnumber
    pca9557.o(i.PCA9557_Show_Voltage) refers to sysctl.o(.emb_text) for SysCtlDelay
    pca9557.o(i.setnumber) refers to pca9557.o(i.I2C0TubeSelSet) for I2C0TubeSelSet
    pca9557.o(i.setnumber) refers to pca9557.o(i.I2C0TubeLowSet) for I2C0TubeLowSet
    pca9557.o(i.setnumber) refers to pca9557.o(i.I2C0TubeHighSet) for I2C0TubeHighSet
    pca9557.o(i.setnumber) refers to pca9557.o(.constdata) for tubeCodeTable
    pca9557.o(i.setnumber) refers to pca9557.o(.data) for a
    oled_i2c.o(i.I2C3MasterInit) refers to sysctl.o(i.SysCtlPeripheralEnable) for SysCtlPeripheralEnable
    oled_i2c.o(i.I2C3MasterInit) refers to i2c.o(i.I2CMasterInitExpClk) for I2CMasterInitExpClk
    oled_i2c.o(i.I2C3MasterInit) refers to i2c.o(i.I2CMasterEnable) for I2CMasterEnable
    oled_i2c.o(i.I2C3PinConfig) refers to sysctl.o(i.SysCtlPeripheralEnable) for SysCtlPeripheralEnable
    oled_i2c.o(i.I2C3PinConfig) refers to gpio.o(i.GPIOPinTypeI2C) for GPIOPinTypeI2C
    oled_i2c.o(i.I2C3PinConfig) refers to gpio.o(i.GPIOPinConfigure) for GPIOPinConfigure
    oled_i2c.o(i.I2C3PinConfig) refers to gpio.o(i.GPIOPinTypeI2CSCL) for GPIOPinTypeI2CSCL
    oled_i2c.o(i.I2C3Send) refers to i2c.o(i.I2CMasterSlaveAddrSet) for I2CMasterSlaveAddrSet
    oled_i2c.o(i.I2C3Send) refers to i2c.o(i.I2CMasterDataPut) for I2CMasterDataPut
    oled_i2c.o(i.I2C3Send) refers to i2c.o(i.I2CMasterControl) for I2CMasterControl
    oled_i2c.o(i.I2C3Send) refers to i2c.o(i.I2CMasterBusy) for I2CMasterBusy
    oled_i2c.o(i.I2C3Send) refers to i2c.o(i.I2CMasterErr) for I2CMasterErr
    oled_i2c.o(i.OLED_CLS) refers to oled_i2c.o(i.OLED_Fill) for OLED_Fill
    oled_i2c.o(i.OLED_DrawBMP) refers to oled_i2c.o(i.OLED_SetPos) for OLED_SetPos
    oled_i2c.o(i.OLED_DrawBMP) refers to oled_i2c.o(i.WriteDat) for WriteDat
    oled_i2c.o(i.OLED_Fill) refers to oled_i2c.o(i.WriteCmd) for WriteCmd
    oled_i2c.o(i.OLED_Fill) refers to oled_i2c.o(i.WriteDat) for WriteDat
    oled_i2c.o(i.OLED_Init) refers to oled_i2c.o(i.I2C3PinConfig) for I2C3PinConfig
    oled_i2c.o(i.OLED_Init) refers to oled_i2c.o(i.I2C3MasterInit) for I2C3MasterInit
    oled_i2c.o(i.OLED_Init) refers to sysctl.o(.emb_text) for SysCtlDelay
    oled_i2c.o(i.OLED_Init) refers to oled_i2c.o(i.WriteCmd) for WriteCmd
    oled_i2c.o(i.OLED_Init) refers to oled_i2c.o(i.OLED_CLS) for OLED_CLS
    oled_i2c.o(i.OLED_OFF) refers to oled_i2c.o(i.WriteCmd) for WriteCmd
    oled_i2c.o(i.OLED_ON) refers to oled_i2c.o(i.WriteCmd) for WriteCmd
    oled_i2c.o(i.OLED_SetPos) refers to oled_i2c.o(i.WriteCmd) for WriteCmd
    oled_i2c.o(i.OLED_ShowCN) refers to oled_i2c.o(i.OLED_SetPos) for OLED_SetPos
    oled_i2c.o(i.OLED_ShowCN) refers to oled_i2c.o(i.WriteDat) for WriteDat
    oled_i2c.o(i.OLED_ShowCN) refers to oled_i2c.o(.data) for F16x16
    oled_i2c.o(i.OLED_ShowStr) refers to oled_i2c.o(i.OLED_SetPos) for OLED_SetPos
    oled_i2c.o(i.OLED_ShowStr) refers to oled_i2c.o(i.WriteDat) for WriteDat
    oled_i2c.o(i.OLED_ShowStr) refers to oled_i2c.o(.constdata) for F6x8
    oled_i2c.o(i.WriteCmd) refers to oled_i2c.o(i.I2C3Send) for I2C3Send
    oled_i2c.o(i.WriteDat) refers to oled_i2c.o(i.I2C3Send) for I2C3Send
    pn532.o(i.PN532_Active) refers to usart.o(i.UARTWriteCmd) for UARTWriteCmd
    pn532.o(i.PN532_Active) refers to usart.o(i.UARTReceiveData) for UARTReceiveData
    pn532.o(i.PN532_Active) refers to pn532.o(i.PN532_Clearbuffer) for PN532_Clearbuffer
    pn532.o(i.PN532_Active) refers to pn532.o(.data) for PN532_ACTIVE
    pn532.o(i.PN532_Active) refers to pn532.o(.bss) for PN532_BUFFER
    pn532.o(i.PN532_Clearbuffer) refers to pn532.o(.bss) for PN532_BUFFER
    pn532.o(i.PN532_Init) refers to pn532.o(i.PN532_Active) for PN532_Active
    pn532.o(i.PN532_Readuid) refers to pn532.o(i.pn532_read) for pn532_read
    pn532.o(i.pn532_read) refers to usart.o(i.UARTWriteCmd) for UARTWriteCmd
    pn532.o(i.pn532_read) refers to usart.o(i.UARTReceiveData) for UARTReceiveData
    pn532.o(i.pn532_read) refers to pn532.o(i.PN532_Clearbuffer) for PN532_Clearbuffer
    pn532.o(i.pn532_read) refers to pn532.o(.data) for PN532_GETUID
    pn532.o(i.pn532_read) refers to pn532.o(.bss) for PN532_BUFFER
    i2c.o(i.Delay5us) refers to i2c.o(i._NOP) for _NOP
    i2c.o(i.I2C0GPIOBEnable) refers to sysctl.o(i.SysCtlPeripheralEnable) for SysCtlPeripheralEnable
    i2c.o(i.I2C0GPIOBEnable) refers to gpio.o(i.GPIOPinTypeGPIOOutput) for GPIOPinTypeGPIOOutput
    i2c.o(i.I2C0GPIOBEnable) refers to gpio.o(i.GPIOPinWrite) for GPIOPinWrite
    i2c.o(i.I2C_GetACK) refers to gpio.o(i.GPIOPinTypeGPIOOutput) for GPIOPinTypeGPIOOutput
    i2c.o(i.I2C_GetACK) refers to i2c.o(i._NOP) for _NOP
    i2c.o(i.I2C_GetACK) refers to i2c.o(i.I2C_Set_scl_low) for I2C_Set_scl_low
    i2c.o(i.I2C_GetACK) refers to i2c.o(i.I2C_Set_scl_high) for I2C_Set_scl_high
    i2c.o(i.I2C_GetACK) refers to i2c.o(i.I2C_Set_sda_low) for I2C_Set_sda_low
    i2c.o(i.I2C_Initial) refers to i2c.o(i.I2C_Set_scl_low) for I2C_Set_scl_low
    i2c.o(i.I2C_Initial) refers to i2c.o(i.I2C_STOP) for I2C_STOP
    i2c.o(i.I2C_RxByte) refers to gpio.o(i.GPIOPinTypeGPIOInput) for GPIOPinTypeGPIOInput
    i2c.o(i.I2C_RxByte) refers to i2c.o(i.I2C_Set_sda_high) for I2C_Set_sda_high
    i2c.o(i.I2C_RxByte) refers to i2c.o(i._NOP) for _NOP
    i2c.o(i.I2C_RxByte) refers to i2c.o(i.I2C_Set_scl_high) for I2C_Set_scl_high
    i2c.o(i.I2C_RxByte) refers to i2c.o(i.Delay5us) for Delay5us
    i2c.o(i.I2C_RxByte) refers to gpio.o(i.GPIOPinRead) for GPIOPinRead
    i2c.o(i.I2C_RxByte) refers to i2c.o(i.I2C_Set_scl_low) for I2C_Set_scl_low
    i2c.o(i.I2C_START) refers to gpio.o(i.GPIOPinTypeGPIOOutput) for GPIOPinTypeGPIOOutput
    i2c.o(i.I2C_START) refers to i2c.o(i.I2C_Set_sda_high) for I2C_Set_sda_high
    i2c.o(i.I2C_START) refers to i2c.o(i.I2C_Set_scl_high) for I2C_Set_scl_high
    i2c.o(i.I2C_START) refers to i2c.o(i.I2C_Set_sda_low) for I2C_Set_sda_low
    i2c.o(i.I2C_START) refers to i2c.o(i.I2C_Set_scl_low) for I2C_Set_scl_low
    i2c.o(i.I2C_STOP) refers to gpio.o(i.GPIOPinTypeGPIOOutput) for GPIOPinTypeGPIOOutput
    i2c.o(i.I2C_STOP) refers to i2c.o(i.I2C_Set_sda_low) for I2C_Set_sda_low
    i2c.o(i.I2C_STOP) refers to i2c.o(i.I2C_Set_scl_low) for I2C_Set_scl_low
    i2c.o(i.I2C_STOP) refers to i2c.o(i.I2C_Set_scl_high) for I2C_Set_scl_high
    i2c.o(i.I2C_STOP) refers to i2c.o(i.I2C_Set_sda_high) for I2C_Set_sda_high
    i2c.o(i.I2C_SetNAk) refers to gpio.o(i.GPIOPinTypeGPIOOutput) for GPIOPinTypeGPIOOutput
    i2c.o(i.I2C_SetNAk) refers to i2c.o(i.I2C_Set_scl_low) for I2C_Set_scl_low
    i2c.o(i.I2C_SetNAk) refers to i2c.o(i.I2C_Set_sda_high) for I2C_Set_sda_high
    i2c.o(i.I2C_SetNAk) refers to i2c.o(i.I2C_Set_scl_high) for I2C_Set_scl_high
    i2c.o(i.I2C_Set_scl_high) refers to gpio.o(i.GPIOPinWrite) for GPIOPinWrite
    i2c.o(i.I2C_Set_scl_high) refers to i2c.o(i._NOP) for _NOP
    i2c.o(i.I2C_Set_scl_low) refers to gpio.o(i.GPIOPinWrite) for GPIOPinWrite
    i2c.o(i.I2C_Set_scl_low) refers to i2c.o(i._NOP) for _NOP
    i2c.o(i.I2C_Set_sda_high) refers to gpio.o(i.GPIOPinWrite) for GPIOPinWrite
    i2c.o(i.I2C_Set_sda_high) refers to i2c.o(i._NOP) for _NOP
    i2c.o(i.I2C_Set_sda_low) refers to gpio.o(i.GPIOPinWrite) for GPIOPinWrite
    i2c.o(i.I2C_Set_sda_low) refers to i2c.o(i._NOP) for _NOP
    i2c.o(i.I2C_TxByte) refers to gpio.o(i.GPIOPinTypeGPIOOutput) for GPIOPinTypeGPIOOutput
    i2c.o(i.I2C_TxByte) refers to i2c.o(i.I2C_Set_sda_high) for I2C_Set_sda_high
    i2c.o(i.I2C_TxByte) refers to i2c.o(i.I2C_Set_sda_low) for I2C_Set_sda_low
    i2c.o(i.I2C_TxByte) refers to i2c.o(i.I2C_Set_scl_high) for I2C_Set_scl_high
    i2c.o(i.I2C_TxByte) refers to i2c.o(i.I2C_Set_scl_low) for I2C_Set_scl_low
    i2c.o(i.SINGLE_read) refers to i2c.o(i.I2C_Set_scl_high) for I2C_Set_scl_high
    i2c.o(i.SINGLE_read) refers to i2c.o(i.I2C_Set_sda_high) for I2C_Set_sda_high
    i2c.o(i.SINGLE_read) refers to i2c.o(i.I2C_START) for I2C_START
    i2c.o(i.SINGLE_read) refers to i2c.o(i.I2C_TxByte) for I2C_TxByte
    i2c.o(i.SINGLE_read) refers to i2c.o(i.I2C_GetACK) for I2C_GetACK
    i2c.o(i.SINGLE_read) refers to i2c.o(i.I2C_RxByte) for I2C_RxByte
    i2c.o(i.SINGLE_read) refers to i2c.o(i.I2C_SetNAk) for I2C_SetNAk
    i2c.o(i.SINGLE_read) refers to i2c.o(i.I2C_STOP) for I2C_STOP
    i2c.o(i.SINGLE_read) refers to i2c.o(i.Delay5us) for Delay5us
    i2c.o(i.i2c_read) refers to i2c.o(i.I2C_Set_scl_high) for I2C_Set_scl_high
    i2c.o(i.i2c_read) refers to i2c.o(i.I2C_Set_sda_high) for I2C_Set_sda_high
    i2c.o(i.i2c_read) refers to i2c.o(i.I2C_START) for I2C_START
    i2c.o(i.i2c_read) refers to i2c.o(i.I2C_TxByte) for I2C_TxByte
    i2c.o(i.i2c_read) refers to i2c.o(i.I2C_GetACK) for I2C_GetACK
    i2c.o(i.i2c_read) refers to i2c.o(i.I2C_RxByte) for I2C_RxByte
    i2c.o(i.i2c_read) refers to i2c.o(i.I2C_SetNAk) for I2C_SetNAk
    i2c.o(i.i2c_read) refers to i2c.o(i.I2C_STOP) for I2C_STOP
    i2c.o(i.i2c_read) refers to i2c.o(i.Delay5us) for Delay5us
    i2c.o(i.i2c_read) refers to i2c.o(.data) for I2C_RECV_DATA
    i2c.o(i.i2c_write) refers to i2c.o(i.I2C_Set_scl_high) for I2C_Set_scl_high
    i2c.o(i.i2c_write) refers to i2c.o(i.I2C_Set_sda_high) for I2C_Set_sda_high
    i2c.o(i.i2c_write) refers to i2c.o(i.I2C_START) for I2C_START
    i2c.o(i.i2c_write) refers to i2c.o(i.I2C_TxByte) for I2C_TxByte
    i2c.o(i.i2c_write) refers to i2c.o(i.I2C_GetACK) for I2C_GetACK
    i2c.o(i.i2c_write) refers to i2c.o(i.I2C_STOP) for I2C_STOP
    i2c.o(i.i2c_write) refers to i2c.o(i.Delay5us) for Delay5us
    cmdline.o(i.CmdLineProcess) refers to strcmp.o(.text) for strcmp
    cmdline.o(i.CmdLineProcess) refers to cmdline.o(.bss) for g_ppcArgv
    cmdline.o(i.CmdLineProcess) refers to sd.o(.data) for g_psCmdTable
    ff.o(i.check_fs) refers to fatfs_port_tm4c1294.o(i.disk_read) for disk_read
    ff.o(i.chk_mounted) refers to fatfs_port_tm4c1294.o(i.disk_status) for disk_status
    ff.o(i.chk_mounted) refers to fatfs_port_tm4c1294.o(i.disk_initialize) for disk_initialize
    ff.o(i.chk_mounted) refers to ff.o(i.check_fs) for check_fs
    ff.o(i.chk_mounted) refers to fatfs_port_tm4c1294.o(i.disk_read) for disk_read
    ff.o(i.chk_mounted) refers to ff.o(.data) for FatFs
    ff.o(i.create_chain) refers to ff.o(i.get_fat) for get_fat
    ff.o(i.create_chain) refers to ff.o(i.put_fat) for put_fat
    ff.o(i.create_name) refers to ff.o(i.mem_set) for mem_set
    ff.o(i.create_name) refers to ff.o(i.chk_chr) for chk_chr
    ff.o(i.dir_alloc) refers to ff.o(i.dir_sdi) for dir_sdi
    ff.o(i.dir_alloc) refers to ff.o(i.move_window) for move_window
    ff.o(i.dir_alloc) refers to ff.o(i.dir_next) for dir_next
    ff.o(i.dir_find) refers to ff.o(i.dir_sdi) for dir_sdi
    ff.o(i.dir_find) refers to ff.o(i.move_window) for move_window
    ff.o(i.dir_find) refers to ff.o(i.mem_cmp) for mem_cmp
    ff.o(i.dir_find) refers to ff.o(i.dir_next) for dir_next
    ff.o(i.dir_next) refers to ff.o(i.get_fat) for get_fat
    ff.o(i.dir_next) refers to ff.o(i.create_chain) for create_chain
    ff.o(i.dir_next) refers to ff.o(i.sync_window) for sync_window
    ff.o(i.dir_next) refers to ff.o(i.mem_set) for mem_set
    ff.o(i.dir_next) refers to ff.o(i.clust2sect) for clust2sect
    ff.o(i.dir_read) refers to ff.o(i.move_window) for move_window
    ff.o(i.dir_read) refers to ff.o(i.dir_next) for dir_next
    ff.o(i.dir_register) refers to ff.o(i.dir_alloc) for dir_alloc
    ff.o(i.dir_register) refers to ff.o(i.move_window) for move_window
    ff.o(i.dir_register) refers to ff.o(i.mem_set) for mem_set
    ff.o(i.dir_register) refers to ff.o(i.mem_cpy) for mem_cpy
    ff.o(i.dir_remove) refers to ff.o(i.dir_sdi) for dir_sdi
    ff.o(i.dir_remove) refers to ff.o(i.move_window) for move_window
    ff.o(i.dir_sdi) refers to ff.o(i.get_fat) for get_fat
    ff.o(i.dir_sdi) refers to ff.o(i.clust2sect) for clust2sect
    ff.o(i.f_chmod) refers to ff.o(i.chk_mounted) for chk_mounted
    ff.o(i.f_chmod) refers to ff.o(i.follow_path) for follow_path
    ff.o(i.f_chmod) refers to ff.o(i.sync_fs) for sync_fs
    ff.o(i.f_close) refers to ff.o(i.f_sync) for f_sync
    ff.o(i.f_getfree) refers to ff.o(i.chk_mounted) for chk_mounted
    ff.o(i.f_getfree) refers to ff.o(i.get_fat) for get_fat
    ff.o(i.f_getfree) refers to ff.o(i.move_window) for move_window
    ff.o(i.f_lseek) refers to ff.o(i.validate) for validate
    ff.o(i.f_lseek) refers to ff.o(i.create_chain) for create_chain
    ff.o(i.f_lseek) refers to ff.o(i.get_fat) for get_fat
    ff.o(i.f_lseek) refers to ff.o(i.clust2sect) for clust2sect
    ff.o(i.f_lseek) refers to fatfs_port_tm4c1294.o(i.disk_write) for disk_write
    ff.o(i.f_lseek) refers to fatfs_port_tm4c1294.o(i.disk_read) for disk_read
    ff.o(i.f_mkdir) refers to fatfs_port_tm4c1294.o(i.get_fattime) for get_fattime
    ff.o(i.f_mkdir) refers to ff.o(i.chk_mounted) for chk_mounted
    ff.o(i.f_mkdir) refers to ff.o(i.follow_path) for follow_path
    ff.o(i.f_mkdir) refers to ff.o(i.create_chain) for create_chain
    ff.o(i.f_mkdir) refers to ff.o(i.sync_window) for sync_window
    ff.o(i.f_mkdir) refers to ff.o(i.clust2sect) for clust2sect
    ff.o(i.f_mkdir) refers to ff.o(i.mem_set) for mem_set
    ff.o(i.f_mkdir) refers to ff.o(i.st_clust) for st_clust
    ff.o(i.f_mkdir) refers to ff.o(i.mem_cpy) for mem_cpy
    ff.o(i.f_mkdir) refers to ff.o(i.dir_register) for dir_register
    ff.o(i.f_mkdir) refers to ff.o(i.remove_chain) for remove_chain
    ff.o(i.f_mkdir) refers to ff.o(i.sync_fs) for sync_fs
    ff.o(i.f_mkfs) refers to fatfs_port_tm4c1294.o(i.disk_initialize) for disk_initialize
    ff.o(i.f_mkfs) refers to fatfs_port_tm4c1294.o(i.disk_ioctl) for disk_ioctl
    ff.o(i.f_mkfs) refers to ff.o(i.mem_set) for mem_set
    ff.o(i.f_mkfs) refers to fatfs_port_tm4c1294.o(i.disk_write) for disk_write
    ff.o(i.f_mkfs) refers to ff.o(i.mem_cpy) for mem_cpy
    ff.o(i.f_mkfs) refers to fatfs_port_tm4c1294.o(i.get_fattime) for get_fattime
    ff.o(i.f_mkfs) refers to ff.o(.data) for FatFs
    ff.o(i.f_mkfs) refers to ff.o(.constdata) for vst
    ff.o(i.f_mount) refers to ff.o(.data) for FatFs
    ff.o(i.f_open) refers to ff.o(i.chk_mounted) for chk_mounted
    ff.o(i.f_open) refers to ff.o(i.follow_path) for follow_path
    ff.o(i.f_open) refers to ff.o(i.dir_register) for dir_register
    ff.o(i.f_open) refers to fatfs_port_tm4c1294.o(i.get_fattime) for get_fattime
    ff.o(i.f_open) refers to ff.o(i.ld_clust) for ld_clust
    ff.o(i.f_open) refers to ff.o(i.st_clust) for st_clust
    ff.o(i.f_open) refers to ff.o(i.remove_chain) for remove_chain
    ff.o(i.f_open) refers to ff.o(i.move_window) for move_window
    ff.o(i.f_opendir) refers to ff.o(i.chk_mounted) for chk_mounted
    ff.o(i.f_opendir) refers to ff.o(i.follow_path) for follow_path
    ff.o(i.f_opendir) refers to ff.o(i.ld_clust) for ld_clust
    ff.o(i.f_opendir) refers to ff.o(i.dir_sdi) for dir_sdi
    ff.o(i.f_read) refers to ff.o(i.validate) for validate
    ff.o(i.f_read) refers to ff.o(i.get_fat) for get_fat
    ff.o(i.f_read) refers to ff.o(i.clust2sect) for clust2sect
    ff.o(i.f_read) refers to fatfs_port_tm4c1294.o(i.disk_read) for disk_read
    ff.o(i.f_read) refers to ff.o(i.mem_cpy) for mem_cpy
    ff.o(i.f_read) refers to fatfs_port_tm4c1294.o(i.disk_write) for disk_write
    ff.o(i.f_readdir) refers to ff.o(i.validate) for validate
    ff.o(i.f_readdir) refers to ff.o(i.dir_sdi) for dir_sdi
    ff.o(i.f_readdir) refers to ff.o(i.dir_read) for dir_read
    ff.o(i.f_readdir) refers to ff.o(i.get_fileinfo) for get_fileinfo
    ff.o(i.f_readdir) refers to ff.o(i.dir_next) for dir_next
    ff.o(i.f_rename) refers to ff.o(i.chk_mounted) for chk_mounted
    ff.o(i.f_rename) refers to ff.o(i.follow_path) for follow_path
    ff.o(i.f_rename) refers to ff.o(i.mem_cpy) for mem_cpy
    ff.o(i.f_rename) refers to ff.o(i.dir_register) for dir_register
    ff.o(i.f_rename) refers to ff.o(i.ld_clust) for ld_clust
    ff.o(i.f_rename) refers to ff.o(i.clust2sect) for clust2sect
    ff.o(i.f_rename) refers to ff.o(i.move_window) for move_window
    ff.o(i.f_rename) refers to ff.o(i.st_clust) for st_clust
    ff.o(i.f_rename) refers to ff.o(i.dir_remove) for dir_remove
    ff.o(i.f_rename) refers to ff.o(i.sync_fs) for sync_fs
    ff.o(i.f_stat) refers to ff.o(i.chk_mounted) for chk_mounted
    ff.o(i.f_stat) refers to ff.o(i.follow_path) for follow_path
    ff.o(i.f_stat) refers to ff.o(i.get_fileinfo) for get_fileinfo
    ff.o(i.f_sync) refers to ff.o(i.validate) for validate
    ff.o(i.f_sync) refers to fatfs_port_tm4c1294.o(i.disk_write) for disk_write
    ff.o(i.f_sync) refers to ff.o(i.move_window) for move_window
    ff.o(i.f_sync) refers to ff.o(i.st_clust) for st_clust
    ff.o(i.f_sync) refers to fatfs_port_tm4c1294.o(i.get_fattime) for get_fattime
    ff.o(i.f_sync) refers to ff.o(i.sync_fs) for sync_fs
    ff.o(i.f_truncate) refers to ff.o(i.validate) for validate
    ff.o(i.f_truncate) refers to ff.o(i.remove_chain) for remove_chain
    ff.o(i.f_truncate) refers to ff.o(i.get_fat) for get_fat
    ff.o(i.f_truncate) refers to ff.o(i.put_fat) for put_fat
    ff.o(i.f_unlink) refers to ff.o(i.chk_mounted) for chk_mounted
    ff.o(i.f_unlink) refers to ff.o(i.follow_path) for follow_path
    ff.o(i.f_unlink) refers to ff.o(i.ld_clust) for ld_clust
    ff.o(i.f_unlink) refers to ff.o(i.mem_cpy) for mem_cpy
    ff.o(i.f_unlink) refers to ff.o(i.dir_sdi) for dir_sdi
    ff.o(i.f_unlink) refers to ff.o(i.dir_read) for dir_read
    ff.o(i.f_unlink) refers to ff.o(i.dir_remove) for dir_remove
    ff.o(i.f_unlink) refers to ff.o(i.remove_chain) for remove_chain
    ff.o(i.f_unlink) refers to ff.o(i.sync_fs) for sync_fs
    ff.o(i.f_utime) refers to ff.o(i.chk_mounted) for chk_mounted
    ff.o(i.f_utime) refers to ff.o(i.follow_path) for follow_path
    ff.o(i.f_utime) refers to ff.o(i.sync_fs) for sync_fs
    ff.o(i.f_write) refers to ff.o(i.validate) for validate
    ff.o(i.f_write) refers to ff.o(i.create_chain) for create_chain
    ff.o(i.f_write) refers to fatfs_port_tm4c1294.o(i.disk_write) for disk_write
    ff.o(i.f_write) refers to ff.o(i.clust2sect) for clust2sect
    ff.o(i.f_write) refers to ff.o(i.mem_cpy) for mem_cpy
    ff.o(i.f_write) refers to fatfs_port_tm4c1294.o(i.disk_read) for disk_read
    ff.o(i.follow_path) refers to ff.o(i.dir_sdi) for dir_sdi
    ff.o(i.follow_path) refers to ff.o(i.create_name) for create_name
    ff.o(i.follow_path) refers to ff.o(i.dir_find) for dir_find
    ff.o(i.follow_path) refers to ff.o(i.ld_clust) for ld_clust
    ff.o(i.get_fat) refers to ff.o(i.move_window) for move_window
    ff.o(i.move_window) refers to ff.o(i.sync_window) for sync_window
    ff.o(i.move_window) refers to fatfs_port_tm4c1294.o(i.disk_read) for disk_read
    ff.o(i.put_fat) refers to ff.o(i.move_window) for move_window
    ff.o(i.remove_chain) refers to ff.o(i.get_fat) for get_fat
    ff.o(i.remove_chain) refers to ff.o(i.put_fat) for put_fat
    ff.o(i.sync_fs) refers to ff.o(i.sync_window) for sync_window
    ff.o(i.sync_fs) refers to ff.o(i.mem_set) for mem_set
    ff.o(i.sync_fs) refers to fatfs_port_tm4c1294.o(i.disk_write) for disk_write
    ff.o(i.sync_fs) refers to fatfs_port_tm4c1294.o(i.disk_ioctl) for disk_ioctl
    ff.o(i.sync_window) refers to fatfs_port_tm4c1294.o(i.disk_write) for disk_write
    ff.o(i.validate) refers to fatfs_port_tm4c1294.o(i.disk_status) for disk_status
    heap_2.o(i.prvHeapInit) refers to heap_2.o(.bss) for ucHeap
    heap_2.o(i.prvHeapInit) refers to heap_2.o(.data) for xStart
    heap_2.o(i.pvPortMalloc) refers to tasks.o(i.vTaskSuspendAll) for vTaskSuspendAll
    heap_2.o(i.pvPortMalloc) refers to heap_2.o(i.prvHeapInit) for prvHeapInit
    heap_2.o(i.pvPortMalloc) refers to tasks.o(i.xTaskResumeAll) for xTaskResumeAll
    heap_2.o(i.pvPortMalloc) refers to heap_2.o(.data) for xHeapHasBeenInitialised
    heap_2.o(i.vPortFree) refers to tasks.o(i.vTaskSuspendAll) for vTaskSuspendAll
    heap_2.o(i.vPortFree) refers to tasks.o(i.xTaskResumeAll) for xTaskResumeAll
    heap_2.o(i.vPortFree) refers to heap_2.o(.data) for xStart
    heap_2.o(i.xPortGetFreeHeapSize) refers to heap_2.o(.data) for xFreeBytesRemaining
    port.o(.emb_text) refers to tasks.o(i.vTaskSwitchContext) for vTaskSwitchContext
    port.o(.emb_text) refers to tasks.o(.data) for pxCurrentTCB
    port.o(i.pxPortInitialiseStack) refers to port.o(i.prvTaskExitError) for prvTaskExitError
    port.o(i.vPortEnterCritical) refers to port.o(.data) for uxCriticalNesting
    port.o(i.vPortExitCritical) refers to port.o(.data) for uxCriticalNesting
    port.o(i.xPortStartScheduler) refers to port.o(i.vPortSetupTimerInterrupt) for vPortSetupTimerInterrupt
    port.o(i.xPortStartScheduler) refers to port.o(.emb_text) for __asm___6_port_c_39a90d8d__prvEnableVFP
    port.o(i.xPortStartScheduler) refers to port.o(.data) for uxCriticalNesting
    port.o(i.xPortSysTickHandler) refers to tasks.o(i.xTaskIncrementTick) for xTaskIncrementTick
    queue.o(i.prvCopyDataFromQueue) refers to memcpya.o(.text) for __aeabi_memcpy
    queue.o(i.prvCopyDataToQueue) refers to tasks.o(i.xTaskPriorityDisinherit) for xTaskPriorityDisinherit
    queue.o(i.prvCopyDataToQueue) refers to memcpya.o(.text) for __aeabi_memcpy
    queue.o(i.prvIsQueueEmpty) refers to port.o(i.vPortEnterCritical) for vPortEnterCritical
    queue.o(i.prvIsQueueEmpty) refers to port.o(i.vPortExitCritical) for vPortExitCritical
    queue.o(i.prvIsQueueFull) refers to port.o(i.vPortEnterCritical) for vPortEnterCritical
    queue.o(i.prvIsQueueFull) refers to port.o(i.vPortExitCritical) for vPortExitCritical
    queue.o(i.prvUnlockQueue) refers to port.o(i.vPortEnterCritical) for vPortEnterCritical
    queue.o(i.prvUnlockQueue) refers to tasks.o(i.xTaskRemoveFromEventList) for xTaskRemoveFromEventList
    queue.o(i.prvUnlockQueue) refers to tasks.o(i.vTaskMissedYield) for vTaskMissedYield
    queue.o(i.prvUnlockQueue) refers to port.o(i.vPortExitCritical) for vPortExitCritical
    queue.o(i.uxQueueMessagesWaiting) refers to port.o(i.vPortEnterCritical) for vPortEnterCritical
    queue.o(i.uxQueueMessagesWaiting) refers to port.o(i.vPortExitCritical) for vPortExitCritical
    queue.o(i.uxQueueSpacesAvailable) refers to port.o(i.vPortEnterCritical) for vPortEnterCritical
    queue.o(i.uxQueueSpacesAvailable) refers to port.o(i.vPortExitCritical) for vPortExitCritical
    queue.o(i.vQueueAddToRegistry) refers to queue.o(.bss) for xQueueRegistry
    queue.o(i.vQueueDelete) refers to queue.o(i.vQueueUnregisterQueue) for vQueueUnregisterQueue
    queue.o(i.vQueueDelete) refers to heap_2.o(i.vPortFree) for vPortFree
    queue.o(i.vQueueUnregisterQueue) refers to queue.o(.bss) for xQueueRegistry
    queue.o(i.vQueueWaitForMessageRestricted) refers to port.o(i.vPortEnterCritical) for vPortEnterCritical
    queue.o(i.vQueueWaitForMessageRestricted) refers to port.o(i.vPortExitCritical) for vPortExitCritical
    queue.o(i.vQueueWaitForMessageRestricted) refers to tasks.o(i.vTaskPlaceOnEventListRestricted) for vTaskPlaceOnEventListRestricted
    queue.o(i.vQueueWaitForMessageRestricted) refers to queue.o(i.prvUnlockQueue) for prvUnlockQueue
    queue.o(i.xQueueAltGenericReceive) refers to port.o(i.vPortEnterCritical) for vPortEnterCritical
    queue.o(i.xQueueAltGenericReceive) refers to queue.o(i.prvCopyDataFromQueue) for prvCopyDataFromQueue
    queue.o(i.xQueueAltGenericReceive) refers to tasks.o(i.xTaskGetCurrentTaskHandle) for xTaskGetCurrentTaskHandle
    queue.o(i.xQueueAltGenericReceive) refers to tasks.o(i.xTaskRemoveFromEventList) for xTaskRemoveFromEventList
    queue.o(i.xQueueAltGenericReceive) refers to port.o(i.vPortExitCritical) for vPortExitCritical
    queue.o(i.xQueueAltGenericReceive) refers to tasks.o(i.vTaskSetTimeOutState) for vTaskSetTimeOutState
    queue.o(i.xQueueAltGenericReceive) refers to tasks.o(i.xTaskCheckForTimeOut) for xTaskCheckForTimeOut
    queue.o(i.xQueueAltGenericReceive) refers to queue.o(i.prvIsQueueEmpty) for prvIsQueueEmpty
    queue.o(i.xQueueAltGenericReceive) refers to tasks.o(i.vTaskPriorityInherit) for vTaskPriorityInherit
    queue.o(i.xQueueAltGenericReceive) refers to tasks.o(i.vTaskPlaceOnEventList) for vTaskPlaceOnEventList
    queue.o(i.xQueueAltGenericSend) refers to port.o(i.vPortEnterCritical) for vPortEnterCritical
    queue.o(i.xQueueAltGenericSend) refers to queue.o(i.prvCopyDataToQueue) for prvCopyDataToQueue
    queue.o(i.xQueueAltGenericSend) refers to tasks.o(i.xTaskRemoveFromEventList) for xTaskRemoveFromEventList
    queue.o(i.xQueueAltGenericSend) refers to port.o(i.vPortExitCritical) for vPortExitCritical
    queue.o(i.xQueueAltGenericSend) refers to tasks.o(i.vTaskSetTimeOutState) for vTaskSetTimeOutState
    queue.o(i.xQueueAltGenericSend) refers to tasks.o(i.xTaskCheckForTimeOut) for xTaskCheckForTimeOut
    queue.o(i.xQueueAltGenericSend) refers to queue.o(i.prvIsQueueFull) for prvIsQueueFull
    queue.o(i.xQueueAltGenericSend) refers to tasks.o(i.vTaskPlaceOnEventList) for vTaskPlaceOnEventList
    queue.o(i.xQueueCreateMutex) refers to heap_2.o(i.pvPortMalloc) for pvPortMalloc
    queue.o(i.xQueueCreateMutex) refers to list.o(i.vListInitialise) for vListInitialise
    queue.o(i.xQueueCreateMutex) refers to queue.o(i.xQueueGenericSend) for xQueueGenericSend
    queue.o(i.xQueueGenericCreate) refers to heap_2.o(i.pvPortMalloc) for pvPortMalloc
    queue.o(i.xQueueGenericCreate) refers to queue.o(i.xQueueGenericReset) for xQueueGenericReset
    queue.o(i.xQueueGenericReceive) refers to port.o(i.vPortEnterCritical) for vPortEnterCritical
    queue.o(i.xQueueGenericReceive) refers to queue.o(i.prvCopyDataFromQueue) for prvCopyDataFromQueue
    queue.o(i.xQueueGenericReceive) refers to tasks.o(i.pvTaskIncrementMutexHeldCount) for pvTaskIncrementMutexHeldCount
    queue.o(i.xQueueGenericReceive) refers to tasks.o(i.xTaskRemoveFromEventList) for xTaskRemoveFromEventList
    queue.o(i.xQueueGenericReceive) refers to port.o(i.vPortExitCritical) for vPortExitCritical
    queue.o(i.xQueueGenericReceive) refers to tasks.o(i.vTaskSetTimeOutState) for vTaskSetTimeOutState
    queue.o(i.xQueueGenericReceive) refers to tasks.o(i.vTaskSuspendAll) for vTaskSuspendAll
    queue.o(i.xQueueGenericReceive) refers to tasks.o(i.xTaskCheckForTimeOut) for xTaskCheckForTimeOut
    queue.o(i.xQueueGenericReceive) refers to queue.o(i.prvIsQueueEmpty) for prvIsQueueEmpty
    queue.o(i.xQueueGenericReceive) refers to tasks.o(i.vTaskPriorityInherit) for vTaskPriorityInherit
    queue.o(i.xQueueGenericReceive) refers to tasks.o(i.vTaskPlaceOnEventList) for vTaskPlaceOnEventList
    queue.o(i.xQueueGenericReceive) refers to queue.o(i.prvUnlockQueue) for prvUnlockQueue
    queue.o(i.xQueueGenericReceive) refers to tasks.o(i.xTaskResumeAll) for xTaskResumeAll
    queue.o(i.xQueueGenericReset) refers to port.o(i.vPortEnterCritical) for vPortEnterCritical
    queue.o(i.xQueueGenericReset) refers to tasks.o(i.xTaskRemoveFromEventList) for xTaskRemoveFromEventList
    queue.o(i.xQueueGenericReset) refers to list.o(i.vListInitialise) for vListInitialise
    queue.o(i.xQueueGenericReset) refers to port.o(i.vPortExitCritical) for vPortExitCritical
    queue.o(i.xQueueGenericSend) refers to port.o(i.vPortEnterCritical) for vPortEnterCritical
    queue.o(i.xQueueGenericSend) refers to queue.o(i.prvCopyDataToQueue) for prvCopyDataToQueue
    queue.o(i.xQueueGenericSend) refers to tasks.o(i.xTaskRemoveFromEventList) for xTaskRemoveFromEventList
    queue.o(i.xQueueGenericSend) refers to port.o(i.vPortExitCritical) for vPortExitCritical
    queue.o(i.xQueueGenericSend) refers to tasks.o(i.vTaskSetTimeOutState) for vTaskSetTimeOutState
    queue.o(i.xQueueGenericSend) refers to tasks.o(i.vTaskSuspendAll) for vTaskSuspendAll
    queue.o(i.xQueueGenericSend) refers to tasks.o(i.xTaskCheckForTimeOut) for xTaskCheckForTimeOut
    queue.o(i.xQueueGenericSend) refers to queue.o(i.prvIsQueueFull) for prvIsQueueFull
    queue.o(i.xQueueGenericSend) refers to tasks.o(i.vTaskPlaceOnEventList) for vTaskPlaceOnEventList
    queue.o(i.xQueueGenericSend) refers to queue.o(i.prvUnlockQueue) for prvUnlockQueue
    queue.o(i.xQueueGenericSend) refers to tasks.o(i.xTaskResumeAll) for xTaskResumeAll
    queue.o(i.xQueueGenericSendFromISR) refers to queue.o(i.prvCopyDataToQueue) for prvCopyDataToQueue
    queue.o(i.xQueueGenericSendFromISR) refers to tasks.o(i.xTaskRemoveFromEventList) for xTaskRemoveFromEventList
    queue.o(i.xQueueGiveFromISR) refers to tasks.o(i.xTaskRemoveFromEventList) for xTaskRemoveFromEventList
    queue.o(i.xQueueGiveMutexRecursive) refers to tasks.o(i.xTaskGetCurrentTaskHandle) for xTaskGetCurrentTaskHandle
    queue.o(i.xQueueGiveMutexRecursive) refers to queue.o(i.xQueueGenericSend) for xQueueGenericSend
    queue.o(i.xQueuePeekFromISR) refers to queue.o(i.prvCopyDataFromQueue) for prvCopyDataFromQueue
    queue.o(i.xQueueReceiveFromISR) refers to queue.o(i.prvCopyDataFromQueue) for prvCopyDataFromQueue
    queue.o(i.xQueueReceiveFromISR) refers to tasks.o(i.xTaskRemoveFromEventList) for xTaskRemoveFromEventList
    queue.o(i.xQueueTakeMutexRecursive) refers to tasks.o(i.xTaskGetCurrentTaskHandle) for xTaskGetCurrentTaskHandle
    queue.o(i.xQueueTakeMutexRecursive) refers to queue.o(i.xQueueGenericReceive) for xQueueGenericReceive
    tasks.o(i.prvAddCurrentTaskToDelayedList) refers to list.o(i.vListInsert) for vListInsert
    tasks.o(i.prvAddCurrentTaskToDelayedList) refers to tasks.o(.data) for pxCurrentTCB
    tasks.o(i.prvAllocateTCBAndStack) refers to heap_2.o(i.pvPortMalloc) for pvPortMalloc
    tasks.o(i.prvAllocateTCBAndStack) refers to heap_2.o(i.vPortFree) for vPortFree
    tasks.o(i.prvAllocateTCBAndStack) refers to memseta.o(.text) for __aeabi_memset
    tasks.o(i.prvCheckTasksWaitingTermination) refers to tasks.o(i.vTaskSuspendAll) for vTaskSuspendAll
    tasks.o(i.prvCheckTasksWaitingTermination) refers to tasks.o(i.xTaskResumeAll) for xTaskResumeAll
    tasks.o(i.prvCheckTasksWaitingTermination) refers to port.o(i.vPortEnterCritical) for vPortEnterCritical
    tasks.o(i.prvCheckTasksWaitingTermination) refers to list.o(i.uxListRemove) for uxListRemove
    tasks.o(i.prvCheckTasksWaitingTermination) refers to port.o(i.vPortExitCritical) for vPortExitCritical
    tasks.o(i.prvCheckTasksWaitingTermination) refers to tasks.o(i.prvDeleteTCB) for prvDeleteTCB
    tasks.o(i.prvCheckTasksWaitingTermination) refers to tasks.o(.bss) for xTasksWaitingTermination
    tasks.o(i.prvCheckTasksWaitingTermination) refers to tasks.o(.data) for uxCurrentNumberOfTasks
    tasks.o(i.prvDeleteTCB) refers to heap_2.o(i.vPortFree) for vPortFree
    tasks.o(i.prvIdleTask) refers to tasks.o(i.prvCheckTasksWaitingTermination) for prvCheckTasksWaitingTermination
    tasks.o(i.prvInitialiseTCBVariables) refers to list.o(i.vListInitialiseItem) for vListInitialiseItem
    tasks.o(i.prvInitialiseTaskLists) refers to list.o(i.vListInitialise) for vListInitialise
    tasks.o(i.prvInitialiseTaskLists) refers to tasks.o(.bss) for pxReadyTasksLists
    tasks.o(i.prvInitialiseTaskLists) refers to tasks.o(.data) for pxDelayedTaskList
    tasks.o(i.prvListTaskWithinSingleList) refers to tasks.o(i.prvTaskCheckFreeStackSpace) for prvTaskCheckFreeStackSpace
    tasks.o(i.prvResetNextTaskUnblockTime) refers to tasks.o(.data) for pxDelayedTaskList
    tasks.o(i.prvTaskIsTaskSuspended) refers to tasks.o(.bss) for xSuspendedTaskList
    tasks.o(i.pvTaskIncrementMutexHeldCount) refers to tasks.o(.data) for pxCurrentTCB
    tasks.o(i.ulTaskNotifyTake) refers to port.o(i.vPortEnterCritical) for vPortEnterCritical
    tasks.o(i.ulTaskNotifyTake) refers to list.o(i.uxListRemove) for uxListRemove
    tasks.o(i.ulTaskNotifyTake) refers to list.o(i.vListInsertEnd) for vListInsertEnd
    tasks.o(i.ulTaskNotifyTake) refers to tasks.o(i.prvAddCurrentTaskToDelayedList) for prvAddCurrentTaskToDelayedList
    tasks.o(i.ulTaskNotifyTake) refers to port.o(i.vPortExitCritical) for vPortExitCritical
    tasks.o(i.ulTaskNotifyTake) refers to tasks.o(.data) for pxCurrentTCB
    tasks.o(i.ulTaskNotifyTake) refers to tasks.o(.bss) for xSuspendedTaskList
    tasks.o(i.uxTaskGetNumberOfTasks) refers to tasks.o(.data) for uxCurrentNumberOfTasks
    tasks.o(i.uxTaskGetStackHighWaterMark) refers to tasks.o(i.prvTaskCheckFreeStackSpace) for prvTaskCheckFreeStackSpace
    tasks.o(i.uxTaskGetStackHighWaterMark) refers to tasks.o(.data) for pxCurrentTCB
    tasks.o(i.uxTaskGetSystemState) refers to tasks.o(i.vTaskSuspendAll) for vTaskSuspendAll
    tasks.o(i.uxTaskGetSystemState) refers to tasks.o(i.prvListTaskWithinSingleList) for prvListTaskWithinSingleList
    tasks.o(i.uxTaskGetSystemState) refers to tasks.o(i.xTaskResumeAll) for xTaskResumeAll
    tasks.o(i.uxTaskGetSystemState) refers to tasks.o(.data) for uxCurrentNumberOfTasks
    tasks.o(i.uxTaskGetSystemState) refers to tasks.o(.bss) for pxReadyTasksLists
    tasks.o(i.uxTaskPriorityGet) refers to port.o(i.vPortEnterCritical) for vPortEnterCritical
    tasks.o(i.uxTaskPriorityGet) refers to port.o(i.vPortExitCritical) for vPortExitCritical
    tasks.o(i.uxTaskPriorityGet) refers to tasks.o(.data) for pxCurrentTCB
    tasks.o(i.uxTaskPriorityGetFromISR) refers to tasks.o(.data) for pxCurrentTCB
    tasks.o(i.uxTaskResetEventItemValue) refers to tasks.o(.data) for pxCurrentTCB
    tasks.o(i.vTaskDelay) refers to tasks.o(i.vTaskSuspendAll) for vTaskSuspendAll
    tasks.o(i.vTaskDelay) refers to list.o(i.uxListRemove) for uxListRemove
    tasks.o(i.vTaskDelay) refers to tasks.o(i.prvAddCurrentTaskToDelayedList) for prvAddCurrentTaskToDelayedList
    tasks.o(i.vTaskDelay) refers to tasks.o(i.xTaskResumeAll) for xTaskResumeAll
    tasks.o(i.vTaskDelay) refers to tasks.o(.data) for xTickCount
    tasks.o(i.vTaskDelayUntil) refers to tasks.o(i.vTaskSuspendAll) for vTaskSuspendAll
    tasks.o(i.vTaskDelayUntil) refers to list.o(i.uxListRemove) for uxListRemove
    tasks.o(i.vTaskDelayUntil) refers to tasks.o(i.prvAddCurrentTaskToDelayedList) for prvAddCurrentTaskToDelayedList
    tasks.o(i.vTaskDelayUntil) refers to tasks.o(i.xTaskResumeAll) for xTaskResumeAll
    tasks.o(i.vTaskDelayUntil) refers to tasks.o(.data) for xTickCount
    tasks.o(i.vTaskDelete) refers to port.o(i.vPortEnterCritical) for vPortEnterCritical
    tasks.o(i.vTaskDelete) refers to list.o(i.uxListRemove) for uxListRemove
    tasks.o(i.vTaskDelete) refers to list.o(i.vListInsertEnd) for vListInsertEnd
    tasks.o(i.vTaskDelete) refers to port.o(i.vPortExitCritical) for vPortExitCritical
    tasks.o(i.vTaskDelete) refers to tasks.o(i.prvResetNextTaskUnblockTime) for prvResetNextTaskUnblockTime
    tasks.o(i.vTaskDelete) refers to tasks.o(.data) for pxCurrentTCB
    tasks.o(i.vTaskDelete) refers to tasks.o(.bss) for pxReadyTasksLists
    tasks.o(i.vTaskEndScheduler) refers to port.o(i.vPortEndScheduler) for vPortEndScheduler
    tasks.o(i.vTaskEndScheduler) refers to tasks.o(.data) for xSchedulerRunning
    tasks.o(i.vTaskMissedYield) refers to tasks.o(.data) for xYieldPending
    tasks.o(i.vTaskNotifyGiveFromISR) refers to list.o(i.uxListRemove) for uxListRemove
    tasks.o(i.vTaskNotifyGiveFromISR) refers to list.o(i.vListInsertEnd) for vListInsertEnd
    tasks.o(i.vTaskNotifyGiveFromISR) refers to tasks.o(.data) for uxSchedulerSuspended
    tasks.o(i.vTaskNotifyGiveFromISR) refers to tasks.o(.bss) for pxReadyTasksLists
    tasks.o(i.vTaskPlaceOnEventList) refers to list.o(i.vListInsert) for vListInsert
    tasks.o(i.vTaskPlaceOnEventList) refers to list.o(i.uxListRemove) for uxListRemove
    tasks.o(i.vTaskPlaceOnEventList) refers to list.o(i.vListInsertEnd) for vListInsertEnd
    tasks.o(i.vTaskPlaceOnEventList) refers to tasks.o(i.prvAddCurrentTaskToDelayedList) for prvAddCurrentTaskToDelayedList
    tasks.o(i.vTaskPlaceOnEventList) refers to tasks.o(.data) for pxCurrentTCB
    tasks.o(i.vTaskPlaceOnEventList) refers to tasks.o(.bss) for xSuspendedTaskList
    tasks.o(i.vTaskPlaceOnEventListRestricted) refers to list.o(i.vListInsertEnd) for vListInsertEnd
    tasks.o(i.vTaskPlaceOnEventListRestricted) refers to list.o(i.uxListRemove) for uxListRemove
    tasks.o(i.vTaskPlaceOnEventListRestricted) refers to tasks.o(i.prvAddCurrentTaskToDelayedList) for prvAddCurrentTaskToDelayedList
    tasks.o(i.vTaskPlaceOnEventListRestricted) refers to tasks.o(.data) for pxCurrentTCB
    tasks.o(i.vTaskPlaceOnEventListRestricted) refers to tasks.o(.bss) for xSuspendedTaskList
    tasks.o(i.vTaskPlaceOnUnorderedEventList) refers to list.o(i.vListInsertEnd) for vListInsertEnd
    tasks.o(i.vTaskPlaceOnUnorderedEventList) refers to list.o(i.uxListRemove) for uxListRemove
    tasks.o(i.vTaskPlaceOnUnorderedEventList) refers to tasks.o(i.prvAddCurrentTaskToDelayedList) for prvAddCurrentTaskToDelayedList
    tasks.o(i.vTaskPlaceOnUnorderedEventList) refers to tasks.o(.data) for pxCurrentTCB
    tasks.o(i.vTaskPlaceOnUnorderedEventList) refers to tasks.o(.bss) for xSuspendedTaskList
    tasks.o(i.vTaskPriorityInherit) refers to list.o(i.uxListRemove) for uxListRemove
    tasks.o(i.vTaskPriorityInherit) refers to list.o(i.vListInsertEnd) for vListInsertEnd
    tasks.o(i.vTaskPriorityInherit) refers to tasks.o(.data) for pxCurrentTCB
    tasks.o(i.vTaskPriorityInherit) refers to tasks.o(.bss) for pxReadyTasksLists
    tasks.o(i.vTaskPrioritySet) refers to port.o(i.vPortEnterCritical) for vPortEnterCritical
    tasks.o(i.vTaskPrioritySet) refers to list.o(i.uxListRemove) for uxListRemove
    tasks.o(i.vTaskPrioritySet) refers to list.o(i.vListInsertEnd) for vListInsertEnd
    tasks.o(i.vTaskPrioritySet) refers to port.o(i.vPortExitCritical) for vPortExitCritical
    tasks.o(i.vTaskPrioritySet) refers to tasks.o(.data) for pxCurrentTCB
    tasks.o(i.vTaskPrioritySet) refers to tasks.o(.bss) for pxReadyTasksLists
    tasks.o(i.vTaskResume) refers to port.o(i.vPortEnterCritical) for vPortEnterCritical
    tasks.o(i.vTaskResume) refers to tasks.o(i.prvTaskIsTaskSuspended) for prvTaskIsTaskSuspended
    tasks.o(i.vTaskResume) refers to list.o(i.uxListRemove) for uxListRemove
    tasks.o(i.vTaskResume) refers to list.o(i.vListInsertEnd) for vListInsertEnd
    tasks.o(i.vTaskResume) refers to port.o(i.vPortExitCritical) for vPortExitCritical
    tasks.o(i.vTaskResume) refers to tasks.o(.data) for pxCurrentTCB
    tasks.o(i.vTaskResume) refers to tasks.o(.bss) for pxReadyTasksLists
    tasks.o(i.vTaskSetTimeOutState) refers to tasks.o(.data) for xNumOfOverflows
    tasks.o(i.vTaskStartScheduler) refers to tasks.o(i.xTaskGenericCreate) for xTaskGenericCreate
    tasks.o(i.vTaskStartScheduler) refers to timers.o(i.xTimerCreateTimerTask) for xTimerCreateTimerTask
    tasks.o(i.vTaskStartScheduler) refers to port.o(i.xPortStartScheduler) for xPortStartScheduler
    tasks.o(i.vTaskStartScheduler) refers to tasks.o(i.prvIdleTask) for prvIdleTask
    tasks.o(i.vTaskStartScheduler) refers to tasks.o(.data) for xNextTaskUnblockTime
    tasks.o(i.vTaskSuspend) refers to port.o(i.vPortEnterCritical) for vPortEnterCritical
    tasks.o(i.vTaskSuspend) refers to list.o(i.uxListRemove) for uxListRemove
    tasks.o(i.vTaskSuspend) refers to list.o(i.vListInsertEnd) for vListInsertEnd
    tasks.o(i.vTaskSuspend) refers to port.o(i.vPortExitCritical) for vPortExitCritical
    tasks.o(i.vTaskSuspend) refers to tasks.o(i.vTaskSwitchContext) for vTaskSwitchContext
    tasks.o(i.vTaskSuspend) refers to tasks.o(i.prvResetNextTaskUnblockTime) for prvResetNextTaskUnblockTime
    tasks.o(i.vTaskSuspend) refers to tasks.o(.data) for pxCurrentTCB
    tasks.o(i.vTaskSuspend) refers to tasks.o(.bss) for pxReadyTasksLists
    tasks.o(i.vTaskSuspendAll) refers to tasks.o(.data) for uxSchedulerSuspended
    tasks.o(i.vTaskSwitchContext) refers to tasks.o(.data) for uxSchedulerSuspended
    tasks.o(i.vTaskSwitchContext) refers to tasks.o(.bss) for pxReadyTasksLists
    tasks.o(i.xTaskCheckForTimeOut) refers to port.o(i.vPortEnterCritical) for vPortEnterCritical
    tasks.o(i.xTaskCheckForTimeOut) refers to tasks.o(i.vTaskSetTimeOutState) for vTaskSetTimeOutState
    tasks.o(i.xTaskCheckForTimeOut) refers to port.o(i.vPortExitCritical) for vPortExitCritical
    tasks.o(i.xTaskCheckForTimeOut) refers to tasks.o(.data) for xTickCount
    tasks.o(i.xTaskGenericCreate) refers to tasks.o(i.prvAllocateTCBAndStack) for prvAllocateTCBAndStack
    tasks.o(i.xTaskGenericCreate) refers to tasks.o(i.prvInitialiseTCBVariables) for prvInitialiseTCBVariables
    tasks.o(i.xTaskGenericCreate) refers to port.o(i.pxPortInitialiseStack) for pxPortInitialiseStack
    tasks.o(i.xTaskGenericCreate) refers to port.o(i.vPortEnterCritical) for vPortEnterCritical
    tasks.o(i.xTaskGenericCreate) refers to tasks.o(i.prvInitialiseTaskLists) for prvInitialiseTaskLists
    tasks.o(i.xTaskGenericCreate) refers to list.o(i.vListInsertEnd) for vListInsertEnd
    tasks.o(i.xTaskGenericCreate) refers to port.o(i.vPortExitCritical) for vPortExitCritical
    tasks.o(i.xTaskGenericCreate) refers to tasks.o(.data) for uxCurrentNumberOfTasks
    tasks.o(i.xTaskGenericCreate) refers to tasks.o(.bss) for pxReadyTasksLists
    tasks.o(i.xTaskGenericNotify) refers to port.o(i.vPortEnterCritical) for vPortEnterCritical
    tasks.o(i.xTaskGenericNotify) refers to list.o(i.uxListRemove) for uxListRemove
    tasks.o(i.xTaskGenericNotify) refers to list.o(i.vListInsertEnd) for vListInsertEnd
    tasks.o(i.xTaskGenericNotify) refers to port.o(i.vPortExitCritical) for vPortExitCritical
    tasks.o(i.xTaskGenericNotify) refers to tasks.o(.data) for uxTopReadyPriority
    tasks.o(i.xTaskGenericNotify) refers to tasks.o(.bss) for pxReadyTasksLists
    tasks.o(i.xTaskGenericNotifyFromISR) refers to list.o(i.uxListRemove) for uxListRemove
    tasks.o(i.xTaskGenericNotifyFromISR) refers to list.o(i.vListInsertEnd) for vListInsertEnd
    tasks.o(i.xTaskGenericNotifyFromISR) refers to tasks.o(.data) for uxSchedulerSuspended
    tasks.o(i.xTaskGenericNotifyFromISR) refers to tasks.o(.bss) for pxReadyTasksLists
    tasks.o(i.xTaskGetCurrentTaskHandle) refers to tasks.o(.data) for pxCurrentTCB
    tasks.o(i.xTaskGetSchedulerState) refers to tasks.o(.data) for xSchedulerRunning
    tasks.o(i.xTaskGetTickCount) refers to tasks.o(.data) for xTickCount
    tasks.o(i.xTaskGetTickCountFromISR) refers to tasks.o(.data) for xTickCount
    tasks.o(i.xTaskIncrementTick) refers to tasks.o(i.prvResetNextTaskUnblockTime) for prvResetNextTaskUnblockTime
    tasks.o(i.xTaskIncrementTick) refers to list.o(i.uxListRemove) for uxListRemove
    tasks.o(i.xTaskIncrementTick) refers to list.o(i.vListInsertEnd) for vListInsertEnd
    tasks.o(i.xTaskIncrementTick) refers to tasks.o(.data) for uxSchedulerSuspended
    tasks.o(i.xTaskIncrementTick) refers to tasks.o(.bss) for pxReadyTasksLists
    tasks.o(i.xTaskNotifyStateClear) refers to port.o(i.vPortEnterCritical) for vPortEnterCritical
    tasks.o(i.xTaskNotifyStateClear) refers to port.o(i.vPortExitCritical) for vPortExitCritical
    tasks.o(i.xTaskNotifyStateClear) refers to tasks.o(.data) for pxCurrentTCB
    tasks.o(i.xTaskNotifyWait) refers to port.o(i.vPortEnterCritical) for vPortEnterCritical
    tasks.o(i.xTaskNotifyWait) refers to list.o(i.uxListRemove) for uxListRemove
    tasks.o(i.xTaskNotifyWait) refers to list.o(i.vListInsertEnd) for vListInsertEnd
    tasks.o(i.xTaskNotifyWait) refers to tasks.o(i.prvAddCurrentTaskToDelayedList) for prvAddCurrentTaskToDelayedList
    tasks.o(i.xTaskNotifyWait) refers to port.o(i.vPortExitCritical) for vPortExitCritical
    tasks.o(i.xTaskNotifyWait) refers to tasks.o(.data) for pxCurrentTCB
    tasks.o(i.xTaskNotifyWait) refers to tasks.o(.bss) for xSuspendedTaskList
    tasks.o(i.xTaskPriorityDisinherit) refers to list.o(i.uxListRemove) for uxListRemove
    tasks.o(i.xTaskPriorityDisinherit) refers to list.o(i.vListInsertEnd) for vListInsertEnd
    tasks.o(i.xTaskPriorityDisinherit) refers to tasks.o(.bss) for pxReadyTasksLists
    tasks.o(i.xTaskPriorityDisinherit) refers to tasks.o(.data) for uxTopReadyPriority
    tasks.o(i.xTaskRemoveFromEventList) refers to list.o(i.uxListRemove) for uxListRemove
    tasks.o(i.xTaskRemoveFromEventList) refers to list.o(i.vListInsertEnd) for vListInsertEnd
    tasks.o(i.xTaskRemoveFromEventList) refers to tasks.o(.data) for uxSchedulerSuspended
    tasks.o(i.xTaskRemoveFromEventList) refers to tasks.o(.bss) for pxReadyTasksLists
    tasks.o(i.xTaskRemoveFromUnorderedEventList) refers to list.o(i.uxListRemove) for uxListRemove
    tasks.o(i.xTaskRemoveFromUnorderedEventList) refers to list.o(i.vListInsertEnd) for vListInsertEnd
    tasks.o(i.xTaskRemoveFromUnorderedEventList) refers to tasks.o(.data) for uxTopReadyPriority
    tasks.o(i.xTaskRemoveFromUnorderedEventList) refers to tasks.o(.bss) for pxReadyTasksLists
    tasks.o(i.xTaskResumeAll) refers to port.o(i.vPortEnterCritical) for vPortEnterCritical
    tasks.o(i.xTaskResumeAll) refers to list.o(i.uxListRemove) for uxListRemove
    tasks.o(i.xTaskResumeAll) refers to list.o(i.vListInsertEnd) for vListInsertEnd
    tasks.o(i.xTaskResumeAll) refers to tasks.o(i.xTaskIncrementTick) for xTaskIncrementTick
    tasks.o(i.xTaskResumeAll) refers to port.o(i.vPortExitCritical) for vPortExitCritical
    tasks.o(i.xTaskResumeAll) refers to tasks.o(.data) for uxSchedulerSuspended
    tasks.o(i.xTaskResumeAll) refers to tasks.o(.bss) for xPendingReadyList
    tasks.o(i.xTaskResumeFromISR) refers to tasks.o(i.prvTaskIsTaskSuspended) for prvTaskIsTaskSuspended
    tasks.o(i.xTaskResumeFromISR) refers to list.o(i.uxListRemove) for uxListRemove
    tasks.o(i.xTaskResumeFromISR) refers to list.o(i.vListInsertEnd) for vListInsertEnd
    tasks.o(i.xTaskResumeFromISR) refers to tasks.o(.data) for uxSchedulerSuspended
    tasks.o(i.xTaskResumeFromISR) refers to tasks.o(.bss) for pxReadyTasksLists
    timers.o(i.prvCheckForValidListAndQueue) refers to port.o(i.vPortEnterCritical) for vPortEnterCritical
    timers.o(i.prvCheckForValidListAndQueue) refers to list.o(i.vListInitialise) for vListInitialise
    timers.o(i.prvCheckForValidListAndQueue) refers to queue.o(i.xQueueGenericCreate) for xQueueGenericCreate
    timers.o(i.prvCheckForValidListAndQueue) refers to queue.o(i.vQueueAddToRegistry) for vQueueAddToRegistry
    timers.o(i.prvCheckForValidListAndQueue) refers to port.o(i.vPortExitCritical) for vPortExitCritical
    timers.o(i.prvCheckForValidListAndQueue) refers to timers.o(.data) for xTimerQueue
    timers.o(i.prvCheckForValidListAndQueue) refers to timers.o(.bss) for xActiveTimerList1
    timers.o(i.prvGetNextExpireTime) refers to timers.o(.data) for pxCurrentTimerList
    timers.o(i.prvInsertTimerInActiveList) refers to list.o(i.vListInsert) for vListInsert
    timers.o(i.prvInsertTimerInActiveList) refers to timers.o(.data) for pxOverflowTimerList
    timers.o(i.prvProcessExpiredTimer) refers to list.o(i.uxListRemove) for uxListRemove
    timers.o(i.prvProcessExpiredTimer) refers to timers.o(i.prvInsertTimerInActiveList) for prvInsertTimerInActiveList
    timers.o(i.prvProcessExpiredTimer) refers to timers.o(i.xTimerGenericCommand) for xTimerGenericCommand
    timers.o(i.prvProcessExpiredTimer) refers to timers.o(.data) for pxCurrentTimerList
    timers.o(i.prvProcessReceivedCommands) refers to list.o(i.uxListRemove) for uxListRemove
    timers.o(i.prvProcessReceivedCommands) refers to timers.o(i.prvSampleTimeNow) for prvSampleTimeNow
    timers.o(i.prvProcessReceivedCommands) refers to timers.o(i.prvInsertTimerInActiveList) for prvInsertTimerInActiveList
    timers.o(i.prvProcessReceivedCommands) refers to timers.o(i.xTimerGenericCommand) for xTimerGenericCommand
    timers.o(i.prvProcessReceivedCommands) refers to heap_2.o(i.vPortFree) for vPortFree
    timers.o(i.prvProcessReceivedCommands) refers to queue.o(i.xQueueGenericReceive) for xQueueGenericReceive
    timers.o(i.prvProcessReceivedCommands) refers to timers.o(.data) for xTimerQueue
    timers.o(i.prvProcessTimerOrBlockTask) refers to tasks.o(i.vTaskSuspendAll) for vTaskSuspendAll
    timers.o(i.prvProcessTimerOrBlockTask) refers to timers.o(i.prvSampleTimeNow) for prvSampleTimeNow
    timers.o(i.prvProcessTimerOrBlockTask) refers to tasks.o(i.xTaskResumeAll) for xTaskResumeAll
    timers.o(i.prvProcessTimerOrBlockTask) refers to timers.o(i.prvProcessExpiredTimer) for prvProcessExpiredTimer
    timers.o(i.prvProcessTimerOrBlockTask) refers to queue.o(i.vQueueWaitForMessageRestricted) for vQueueWaitForMessageRestricted
    timers.o(i.prvProcessTimerOrBlockTask) refers to timers.o(.data) for pxOverflowTimerList
    timers.o(i.prvSampleTimeNow) refers to tasks.o(i.xTaskGetTickCount) for xTaskGetTickCount
    timers.o(i.prvSampleTimeNow) refers to timers.o(i.prvSwitchTimerLists) for prvSwitchTimerLists
    timers.o(i.prvSampleTimeNow) refers to timers.o(.data) for xLastTime
    timers.o(i.prvSwitchTimerLists) refers to list.o(i.uxListRemove) for uxListRemove
    timers.o(i.prvSwitchTimerLists) refers to list.o(i.vListInsert) for vListInsert
    timers.o(i.prvSwitchTimerLists) refers to timers.o(i.xTimerGenericCommand) for xTimerGenericCommand
    timers.o(i.prvSwitchTimerLists) refers to timers.o(.data) for pxCurrentTimerList
    timers.o(i.prvTimerTask) refers to timers.o(i.prvGetNextExpireTime) for prvGetNextExpireTime
    timers.o(i.prvTimerTask) refers to timers.o(i.prvProcessTimerOrBlockTask) for prvProcessTimerOrBlockTask
    timers.o(i.prvTimerTask) refers to timers.o(i.prvProcessReceivedCommands) for prvProcessReceivedCommands
    timers.o(i.pvTimerGetTimerID) refers to port.o(i.vPortEnterCritical) for vPortEnterCritical
    timers.o(i.pvTimerGetTimerID) refers to port.o(i.vPortExitCritical) for vPortExitCritical
    timers.o(i.vTimerSetTimerID) refers to port.o(i.vPortEnterCritical) for vPortEnterCritical
    timers.o(i.vTimerSetTimerID) refers to port.o(i.vPortExitCritical) for vPortExitCritical
    timers.o(i.xTimerCreate) refers to heap_2.o(i.pvPortMalloc) for pvPortMalloc
    timers.o(i.xTimerCreate) refers to timers.o(i.prvCheckForValidListAndQueue) for prvCheckForValidListAndQueue
    timers.o(i.xTimerCreate) refers to list.o(i.vListInitialiseItem) for vListInitialiseItem
    timers.o(i.xTimerCreateTimerTask) refers to timers.o(i.prvCheckForValidListAndQueue) for prvCheckForValidListAndQueue
    timers.o(i.xTimerCreateTimerTask) refers to tasks.o(i.xTaskGenericCreate) for xTaskGenericCreate
    timers.o(i.xTimerCreateTimerTask) refers to timers.o(.data) for xTimerQueue
    timers.o(i.xTimerCreateTimerTask) refers to timers.o(i.prvTimerTask) for prvTimerTask
    timers.o(i.xTimerGenericCommand) refers to tasks.o(i.xTaskGetSchedulerState) for xTaskGetSchedulerState
    timers.o(i.xTimerGenericCommand) refers to queue.o(i.xQueueGenericSend) for xQueueGenericSend
    timers.o(i.xTimerGenericCommand) refers to queue.o(i.xQueueGenericSendFromISR) for xQueueGenericSendFromISR
    timers.o(i.xTimerGenericCommand) refers to timers.o(.data) for xTimerQueue
    timers.o(i.xTimerIsTimerActive) refers to port.o(i.vPortEnterCritical) for vPortEnterCritical
    timers.o(i.xTimerIsTimerActive) refers to port.o(i.vPortExitCritical) for vPortExitCritical
    event_groups.o(i.vEventGroupClearBitsCallback) refers to event_groups.o(i.xEventGroupClearBits) for xEventGroupClearBits
    event_groups.o(i.vEventGroupDelete) refers to tasks.o(i.vTaskSuspendAll) for vTaskSuspendAll
    event_groups.o(i.vEventGroupDelete) refers to tasks.o(i.xTaskRemoveFromUnorderedEventList) for xTaskRemoveFromUnorderedEventList
    event_groups.o(i.vEventGroupDelete) refers to heap_2.o(i.vPortFree) for vPortFree
    event_groups.o(i.vEventGroupDelete) refers to tasks.o(i.xTaskResumeAll) for xTaskResumeAll
    event_groups.o(i.vEventGroupSetBitsCallback) refers to event_groups.o(i.xEventGroupSetBits) for xEventGroupSetBits
    event_groups.o(i.xEventGroupClearBits) refers to port.o(i.vPortEnterCritical) for vPortEnterCritical
    event_groups.o(i.xEventGroupClearBits) refers to port.o(i.vPortExitCritical) for vPortExitCritical
    event_groups.o(i.xEventGroupCreate) refers to heap_2.o(i.pvPortMalloc) for pvPortMalloc
    event_groups.o(i.xEventGroupCreate) refers to list.o(i.vListInitialise) for vListInitialise
    event_groups.o(i.xEventGroupSetBits) refers to tasks.o(i.vTaskSuspendAll) for vTaskSuspendAll
    event_groups.o(i.xEventGroupSetBits) refers to tasks.o(i.xTaskRemoveFromUnorderedEventList) for xTaskRemoveFromUnorderedEventList
    event_groups.o(i.xEventGroupSetBits) refers to tasks.o(i.xTaskResumeAll) for xTaskResumeAll
    event_groups.o(i.xEventGroupSync) refers to tasks.o(i.vTaskSuspendAll) for vTaskSuspendAll
    event_groups.o(i.xEventGroupSync) refers to event_groups.o(i.xEventGroupSetBits) for xEventGroupSetBits
    event_groups.o(i.xEventGroupSync) refers to tasks.o(i.vTaskPlaceOnUnorderedEventList) for vTaskPlaceOnUnorderedEventList
    event_groups.o(i.xEventGroupSync) refers to tasks.o(i.xTaskResumeAll) for xTaskResumeAll
    event_groups.o(i.xEventGroupSync) refers to tasks.o(i.uxTaskResetEventItemValue) for uxTaskResetEventItemValue
    event_groups.o(i.xEventGroupSync) refers to port.o(i.vPortEnterCritical) for vPortEnterCritical
    event_groups.o(i.xEventGroupSync) refers to port.o(i.vPortExitCritical) for vPortExitCritical
    event_groups.o(i.xEventGroupWaitBits) refers to tasks.o(i.vTaskSuspendAll) for vTaskSuspendAll
    event_groups.o(i.xEventGroupWaitBits) refers to event_groups.o(i.prvTestWaitCondition) for prvTestWaitCondition
    event_groups.o(i.xEventGroupWaitBits) refers to tasks.o(i.vTaskPlaceOnUnorderedEventList) for vTaskPlaceOnUnorderedEventList
    event_groups.o(i.xEventGroupWaitBits) refers to tasks.o(i.xTaskResumeAll) for xTaskResumeAll
    event_groups.o(i.xEventGroupWaitBits) refers to tasks.o(i.uxTaskResetEventItemValue) for uxTaskResetEventItemValue
    event_groups.o(i.xEventGroupWaitBits) refers to port.o(i.vPortEnterCritical) for vPortEnterCritical
    event_groups.o(i.xEventGroupWaitBits) refers to port.o(i.vPortExitCritical) for vPortExitCritical
    adc.o(i.ADCIntRegister) refers to interrupt.o(i.IntRegister) for IntRegister
    adc.o(i.ADCIntRegister) refers to interrupt.o(i.IntEnable) for IntEnable
    adc.o(i.ADCIntUnregister) refers to interrupt.o(i.IntDisable) for IntDisable
    adc.o(i.ADCIntUnregister) refers to interrupt.o(i.IntUnregister) for IntUnregister
    adc.o(i.ADCSoftwareOversampleConfigure) refers to adc.o(.data) for .data
    adc.o(i.ADCSoftwareOversampleDataGet) refers to adc.o(.data) for .data
    adc.o(i.ADCSoftwareOversampleStepConfigure) refers to adc.o(.data) for .data
    epi.o(i.EPIIntRegister) refers to interrupt.o(i.IntRegister) for IntRegister
    epi.o(i.EPIIntRegister) refers to interrupt.o(i.IntEnable) for IntEnable
    epi.o(i.EPIIntUnregister) refers to interrupt.o(i.IntDisable) for IntDisable
    epi.o(i.EPIIntUnregister) refers to interrupt.o(i.IntUnregister) for IntUnregister
    gpio.o(i.GPIOIntRegister) refers to gpio.o(i._GPIOIntNumberGet) for _GPIOIntNumberGet
    gpio.o(i.GPIOIntRegister) refers to interrupt.o(i.IntRegister) for IntRegister
    gpio.o(i.GPIOIntRegister) refers to interrupt.o(i.IntEnable) for IntEnable
    gpio.o(i.GPIOIntRegisterPin) refers to gpio.o(i._GPIOIntNumberGet) for _GPIOIntNumberGet
    gpio.o(i.GPIOIntRegisterPin) refers to interrupt.o(i.IntRegister) for IntRegister
    gpio.o(i.GPIOIntRegisterPin) refers to interrupt.o(i.IntEnable) for IntEnable
    gpio.o(i.GPIOIntUnregister) refers to gpio.o(i._GPIOIntNumberGet) for _GPIOIntNumberGet
    gpio.o(i.GPIOIntUnregister) refers to interrupt.o(i.IntDisable) for IntDisable
    gpio.o(i.GPIOIntUnregister) refers to interrupt.o(i.IntUnregister) for IntUnregister
    gpio.o(i.GPIOIntUnregisterPin) refers to gpio.o(i._GPIOIntNumberGet) for _GPIOIntNumberGet
    gpio.o(i.GPIOIntUnregisterPin) refers to interrupt.o(i.IntDisable) for IntDisable
    gpio.o(i.GPIOIntUnregisterPin) refers to interrupt.o(i.IntUnregister) for IntUnregister
    gpio.o(i.GPIOPinConfigure) refers to gpio.o(.constdata) for .constdata
    gpio.o(i.GPIOPinTypeADC) refers to gpio.o(i.GPIODirModeSet) for GPIODirModeSet
    gpio.o(i.GPIOPinTypeADC) refers to gpio.o(i.GPIOPadConfigSet) for GPIOPadConfigSet
    gpio.o(i.GPIOPinTypeCAN) refers to gpio.o(i.GPIODirModeSet) for GPIODirModeSet
    gpio.o(i.GPIOPinTypeCAN) refers to gpio.o(i.GPIOPadConfigSet) for GPIOPadConfigSet
    gpio.o(i.GPIOPinTypeComparator) refers to gpio.o(i.GPIODirModeSet) for GPIODirModeSet
    gpio.o(i.GPIOPinTypeComparator) refers to gpio.o(i.GPIOPadConfigSet) for GPIOPadConfigSet
    gpio.o(i.GPIOPinTypeComparatorOutput) refers to gpio.o(i.GPIODirModeSet) for GPIODirModeSet
    gpio.o(i.GPIOPinTypeComparatorOutput) refers to gpio.o(i.GPIOPadConfigSet) for GPIOPadConfigSet
    gpio.o(i.GPIOPinTypeDIVSCLK) refers to gpio.o(i.GPIODirModeSet) for GPIODirModeSet
    gpio.o(i.GPIOPinTypeDIVSCLK) refers to gpio.o(i.GPIOPadConfigSet) for GPIOPadConfigSet
    gpio.o(i.GPIOPinTypeEPI) refers to gpio.o(i.GPIODirModeSet) for GPIODirModeSet
    gpio.o(i.GPIOPinTypeEPI) refers to gpio.o(i.GPIOPadConfigSet) for GPIOPadConfigSet
    gpio.o(i.GPIOPinTypeEthernetLED) refers to gpio.o(i.GPIODirModeSet) for GPIODirModeSet
    gpio.o(i.GPIOPinTypeEthernetLED) refers to gpio.o(i.GPIOPadConfigSet) for GPIOPadConfigSet
    gpio.o(i.GPIOPinTypeEthernetMII) refers to gpio.o(i.GPIODirModeSet) for GPIODirModeSet
    gpio.o(i.GPIOPinTypeEthernetMII) refers to gpio.o(i.GPIOPadConfigSet) for GPIOPadConfigSet
    gpio.o(i.GPIOPinTypeGPIOInput) refers to gpio.o(i.GPIODirModeSet) for GPIODirModeSet
    gpio.o(i.GPIOPinTypeGPIOInput) refers to gpio.o(i.GPIOPadConfigSet) for GPIOPadConfigSet
    gpio.o(i.GPIOPinTypeGPIOOutput) refers to gpio.o(i.GPIOPadConfigSet) for GPIOPadConfigSet
    gpio.o(i.GPIOPinTypeGPIOOutput) refers to gpio.o(i.GPIODirModeSet) for GPIODirModeSet
    gpio.o(i.GPIOPinTypeGPIOOutputOD) refers to gpio.o(i.GPIOPadConfigSet) for GPIOPadConfigSet
    gpio.o(i.GPIOPinTypeGPIOOutputOD) refers to gpio.o(i.GPIODirModeSet) for GPIODirModeSet
    gpio.o(i.GPIOPinTypeHibernateRTCCLK) refers to gpio.o(i.GPIODirModeSet) for GPIODirModeSet
    gpio.o(i.GPIOPinTypeHibernateRTCCLK) refers to gpio.o(i.GPIOPadConfigSet) for GPIOPadConfigSet
    gpio.o(i.GPIOPinTypeI2C) refers to gpio.o(i.GPIODirModeSet) for GPIODirModeSet
    gpio.o(i.GPIOPinTypeI2C) refers to gpio.o(i.GPIOPadConfigSet) for GPIOPadConfigSet
    gpio.o(i.GPIOPinTypeI2CSCL) refers to gpio.o(i.GPIODirModeSet) for GPIODirModeSet
    gpio.o(i.GPIOPinTypeI2CSCL) refers to gpio.o(i.GPIOPadConfigSet) for GPIOPadConfigSet
    gpio.o(i.GPIOPinTypeLCD) refers to gpio.o(i.GPIODirModeSet) for GPIODirModeSet
    gpio.o(i.GPIOPinTypeLCD) refers to gpio.o(i.GPIOPadConfigSet) for GPIOPadConfigSet
    gpio.o(i.GPIOPinTypeOneWire) refers to gpio.o(i.GPIODirModeSet) for GPIODirModeSet
    gpio.o(i.GPIOPinTypeOneWire) refers to gpio.o(i.GPIOPadConfigSet) for GPIOPadConfigSet
    gpio.o(i.GPIOPinTypePWM) refers to gpio.o(i.GPIODirModeSet) for GPIODirModeSet
    gpio.o(i.GPIOPinTypePWM) refers to gpio.o(i.GPIOPadConfigSet) for GPIOPadConfigSet
    gpio.o(i.GPIOPinTypeQEI) refers to gpio.o(i.GPIODirModeSet) for GPIODirModeSet
    gpio.o(i.GPIOPinTypeQEI) refers to gpio.o(i.GPIOPadConfigSet) for GPIOPadConfigSet
    gpio.o(i.GPIOPinTypeSSI) refers to gpio.o(i.GPIODirModeSet) for GPIODirModeSet
    gpio.o(i.GPIOPinTypeSSI) refers to gpio.o(i.GPIOPadConfigSet) for GPIOPadConfigSet
    gpio.o(i.GPIOPinTypeTimer) refers to gpio.o(i.GPIODirModeSet) for GPIODirModeSet
    gpio.o(i.GPIOPinTypeTimer) refers to gpio.o(i.GPIOPadConfigSet) for GPIOPadConfigSet
    gpio.o(i.GPIOPinTypeTrace) refers to gpio.o(i.GPIODirModeSet) for GPIODirModeSet
    gpio.o(i.GPIOPinTypeTrace) refers to gpio.o(i.GPIOPadConfigSet) for GPIOPadConfigSet
    gpio.o(i.GPIOPinTypeUART) refers to gpio.o(i.GPIODirModeSet) for GPIODirModeSet
    gpio.o(i.GPIOPinTypeUART) refers to gpio.o(i.GPIOPadConfigSet) for GPIOPadConfigSet
    gpio.o(i.GPIOPinTypeUSBAnalog) refers to gpio.o(i.GPIODirModeSet) for GPIODirModeSet
    gpio.o(i.GPIOPinTypeUSBAnalog) refers to gpio.o(i.GPIOPadConfigSet) for GPIOPadConfigSet
    gpio.o(i.GPIOPinTypeUSBDigital) refers to gpio.o(i.GPIODirModeSet) for GPIODirModeSet
    gpio.o(i.GPIOPinTypeUSBDigital) refers to gpio.o(i.GPIOPadConfigSet) for GPIOPadConfigSet
    gpio.o(i.GPIOPinTypeWakeHigh) refers to gpio.o(i.GPIODirModeSet) for GPIODirModeSet
    gpio.o(i.GPIOPinTypeWakeHigh) refers to gpio.o(i.GPIOPadConfigSet) for GPIOPadConfigSet
    gpio.o(i.GPIOPinTypeWakeLow) refers to gpio.o(i.GPIODirModeSet) for GPIODirModeSet
    gpio.o(i.GPIOPinTypeWakeLow) refers to gpio.o(i.GPIOPadConfigSet) for GPIOPadConfigSet
    gpio.o(i._GPIOIntNumberGet) refers to gpio.o(.constdata) for .constdata
    i2c.o(i.I2CIntRegister) refers to interrupt.o(i.IntRegister) for IntRegister
    i2c.o(i.I2CIntRegister) refers to interrupt.o(i.IntEnable) for IntEnable
    i2c.o(i.I2CIntRegister) refers to i2c.o(.constdata) for .constdata
    i2c.o(i.I2CIntUnregister) refers to interrupt.o(i.IntDisable) for IntDisable
    i2c.o(i.I2CIntUnregister) refers to interrupt.o(i.IntUnregister) for IntUnregister
    i2c.o(i.I2CIntUnregister) refers to i2c.o(.constdata) for .constdata
    interrupt.o(i.IntDisable) refers to interrupt.o(.constdata) for .constdata
    interrupt.o(i.IntEnable) refers to interrupt.o(.constdata) for .constdata
    interrupt.o(i.IntIsEnabled) refers to interrupt.o(.constdata) for .constdata
    interrupt.o(i.IntMasterDisable) refers to cpu.o(.emb_text) for CPUcpsid
    interrupt.o(i.IntMasterEnable) refers to cpu.o(.emb_text) for CPUcpsie
    interrupt.o(i.IntPendClear) refers to interrupt.o(.constdata) for .constdata
    interrupt.o(i.IntPendSet) refers to interrupt.o(.constdata) for .constdata
    interrupt.o(i.IntPriorityGet) refers to interrupt.o(.constdata) for .constdata
    interrupt.o(i.IntPriorityGroupingGet) refers to interrupt.o(.constdata) for .constdata
    interrupt.o(i.IntPriorityGroupingSet) refers to interrupt.o(.constdata) for .constdata
    interrupt.o(i.IntPriorityMaskGet) refers to cpu.o(.emb_text) for CPUbasepriGet
    interrupt.o(i.IntPriorityMaskSet) refers to cpu.o(.emb_text) for CPUbasepriSet
    interrupt.o(i.IntPrioritySet) refers to interrupt.o(.constdata) for .constdata
    interrupt.o(i.IntRegister) refers to interrupt.o(vtable) for vtable
    interrupt.o(i.IntUnregister) refers to interrupt.o(i._IntDefaultHandler) for _IntDefaultHandler
    interrupt.o(i.IntUnregister) refers to interrupt.o(vtable) for vtable
    ssi.o(i.SSIIntRegister) refers to interrupt.o(i.IntRegister) for IntRegister
    ssi.o(i.SSIIntRegister) refers to interrupt.o(i.IntEnable) for IntEnable
    ssi.o(i.SSIIntRegister) refers to ssi.o(.constdata) for .constdata
    ssi.o(i.SSIIntUnregister) refers to interrupt.o(i.IntDisable) for IntDisable
    ssi.o(i.SSIIntUnregister) refers to interrupt.o(i.IntUnregister) for IntUnregister
    ssi.o(i.SSIIntUnregister) refers to ssi.o(.constdata) for .constdata
    sysctl.o(i.SysCtlClockFreqSet) refers to sysctl.o(.constdata) for .constdata
    sysctl.o(i.SysCtlClockGet) refers to sysctl.o(.constdata) for .constdata
    sysctl.o(i.SysCtlClockSet) refers to sysctl.o(.emb_text) for SysCtlDelay
    sysctl.o(i.SysCtlDeepSleep) refers to cpu.o(.emb_text) for CPUwfi
    sysctl.o(i.SysCtlIntRegister) refers to interrupt.o(i.IntRegister) for IntRegister
    sysctl.o(i.SysCtlIntRegister) refers to interrupt.o(i.IntEnable) for IntEnable
    sysctl.o(i.SysCtlIntUnregister) refers to interrupt.o(i.IntDisable) for IntDisable
    sysctl.o(i.SysCtlIntUnregister) refers to interrupt.o(i.IntUnregister) for IntUnregister
    sysctl.o(i.SysCtlSleep) refers to cpu.o(.emb_text) for CPUwfi
    sysctl.o(i.SysCtlVCOGet) refers to sysctl.o(.constdata) for .constdata
    timer.o(i.TimerIntRegister) refers to interrupt.o(i.IntRegister) for IntRegister
    timer.o(i.TimerIntRegister) refers to interrupt.o(i.IntEnable) for IntEnable
    timer.o(i.TimerIntRegister) refers to timer.o(.constdata) for .constdata
    timer.o(i.TimerIntUnregister) refers to interrupt.o(i.IntDisable) for IntDisable
    timer.o(i.TimerIntUnregister) refers to interrupt.o(i.IntUnregister) for IntUnregister
    timer.o(i.TimerIntUnregister) refers to timer.o(.constdata) for .constdata
    uart.o(i.UARTIntRegister) refers to interrupt.o(i.IntRegister) for IntRegister
    uart.o(i.UARTIntRegister) refers to interrupt.o(i.IntEnable) for IntEnable
    uart.o(i.UARTIntRegister) refers to uart.o(.constdata) for .constdata
    uart.o(i.UARTIntUnregister) refers to interrupt.o(i.IntDisable) for IntDisable
    uart.o(i.UARTIntUnregister) refers to interrupt.o(i.IntUnregister) for IntUnregister
    uart.o(i.UARTIntUnregister) refers to uart.o(.constdata) for .constdata
    entry.o(.ARM.Collect$$$$00000000) refers (Special) to entry10a.o(.ARM.Collect$$$$0000000D) for __rt_final_cpp
    entry.o(.ARM.Collect$$$$00000000) refers (Special) to entry11a.o(.ARM.Collect$$$$0000000F) for __rt_final_exit
    entry.o(.ARM.Collect$$$$00000000) refers (Special) to entry7b.o(.ARM.Collect$$$$00000008) for _main_clock
    entry.o(.ARM.Collect$$$$00000000) refers (Special) to entry8b.o(.ARM.Collect$$$$0000000A) for _main_cpp_init
    entry.o(.ARM.Collect$$$$00000000) refers (Special) to entry9a.o(.ARM.Collect$$$$0000000B) for _main_init
    entry.o(.ARM.Collect$$$$00000000) refers (Special) to entry5.o(.ARM.Collect$$$$00000004) for _main_scatterload
    entry.o(.ARM.Collect$$$$00000000) refers (Special) to entry2.o(.ARM.Collect$$$$00000001) for _main_stk
    printfb.o(i.__0fprintf$bare) refers to printfb.o(i._printf_core) for _printf_core
    printfb.o(i.__0fprintf$bare) refers to fputc.o(i.fputc) for fputc
    printfb.o(i.__0printf$bare) refers to printfb.o(i._printf_core) for _printf_core
    printfb.o(i.__0printf$bare) refers to fputc.o(i.fputc) for fputc
    printfb.o(i.__0printf$bare) refers to stdout.o(.data) for __stdout
    printfb.o(i.__0snprintf$bare) refers to printfb.o(i._printf_core) for _printf_core
    printfb.o(i.__0snprintf$bare) refers to printfb.o(i._snputc) for _snputc
    printfb.o(i.__0sprintf$bare) refers to printfb.o(i._printf_core) for _printf_core
    printfb.o(i.__0sprintf$bare) refers to printfb.o(i._sputc) for _sputc
    printfb.o(i.__0vfprintf$bare) refers to printfb.o(i._printf_core) for _printf_core
    printfb.o(i.__0vfprintf$bare) refers to fputc.o(i.fputc) for fputc
    printfb.o(i.__0vprintf$bare) refers to printfb.o(i._printf_core) for _printf_core
    printfb.o(i.__0vprintf$bare) refers to fputc.o(i.fputc) for fputc
    printfb.o(i.__0vprintf$bare) refers to stdout.o(.data) for __stdout
    printfb.o(i.__0vsnprintf$bare) refers to printfb.o(i._printf_core) for _printf_core
    printfb.o(i.__0vsnprintf$bare) refers to printfb.o(i._snputc) for _snputc
    printfb.o(i.__0vsprintf$bare) refers to printfb.o(i._printf_core) for _printf_core
    printfb.o(i.__0vsprintf$bare) refers to printfb.o(i._sputc) for _sputc
    printf0.o(i.__0fprintf$0) refers to printf0.o(i._printf_core) for _printf_core
    printf0.o(i.__0fprintf$0) refers to fputc.o(i.fputc) for fputc
    printf0.o(i.__0printf$0) refers to printf0.o(i._printf_core) for _printf_core
    printf0.o(i.__0printf$0) refers to fputc.o(i.fputc) for fputc
    printf0.o(i.__0printf$0) refers to stdout.o(.data) for __stdout
    printf0.o(i.__0snprintf$0) refers to printf0.o(i._printf_core) for _printf_core
    printf0.o(i.__0snprintf$0) refers to printf0.o(i._snputc) for _snputc
    printf0.o(i.__0sprintf$0) refers to printf0.o(i._printf_core) for _printf_core
    printf0.o(i.__0sprintf$0) refers to printf0.o(i._sputc) for _sputc
    printf0.o(i.__0vfprintf$0) refers to printf0.o(i._printf_core) for _printf_core
    printf0.o(i.__0vfprintf$0) refers to fputc.o(i.fputc) for fputc
    printf0.o(i.__0vprintf$0) refers to printf0.o(i._printf_core) for _printf_core
    printf0.o(i.__0vprintf$0) refers to fputc.o(i.fputc) for fputc
    printf0.o(i.__0vprintf$0) refers to stdout.o(.data) for __stdout
    printf0.o(i.__0vsnprintf$0) refers to printf0.o(i._printf_core) for _printf_core
    printf0.o(i.__0vsnprintf$0) refers to printf0.o(i._snputc) for _snputc
    printf0.o(i.__0vsprintf$0) refers to printf0.o(i._printf_core) for _printf_core
    printf0.o(i.__0vsprintf$0) refers to printf0.o(i._sputc) for _sputc
    printf1.o(i.__0fprintf$1) refers to printf1.o(i._printf_core) for _printf_core
    printf1.o(i.__0fprintf$1) refers to fputc.o(i.fputc) for fputc
    printf1.o(i.__0printf$1) refers to printf1.o(i._printf_core) for _printf_core
    printf1.o(i.__0printf$1) refers to fputc.o(i.fputc) for fputc
    printf1.o(i.__0printf$1) refers to stdout.o(.data) for __stdout
    printf1.o(i.__0snprintf$1) refers to printf1.o(i._printf_core) for _printf_core
    printf1.o(i.__0snprintf$1) refers to printf1.o(i._snputc) for _snputc
    printf1.o(i.__0sprintf$1) refers to printf1.o(i._printf_core) for _printf_core
    printf1.o(i.__0sprintf$1) refers to printf1.o(i._sputc) for _sputc
    printf1.o(i.__0vfprintf$1) refers to printf1.o(i._printf_core) for _printf_core
    printf1.o(i.__0vfprintf$1) refers to fputc.o(i.fputc) for fputc
    printf1.o(i.__0vprintf$1) refers to printf1.o(i._printf_core) for _printf_core
    printf1.o(i.__0vprintf$1) refers to fputc.o(i.fputc) for fputc
    printf1.o(i.__0vprintf$1) refers to stdout.o(.data) for __stdout
    printf1.o(i.__0vsnprintf$1) refers to printf1.o(i._printf_core) for _printf_core
    printf1.o(i.__0vsnprintf$1) refers to printf1.o(i._snputc) for _snputc
    printf1.o(i.__0vsprintf$1) refers to printf1.o(i._printf_core) for _printf_core
    printf1.o(i.__0vsprintf$1) refers to printf1.o(i._sputc) for _sputc
    printf1.o(i._printf_core) refers to uidiv.o(.text) for __aeabi_uidivmod
    printf2.o(i.__0fprintf$2) refers to printf2.o(i._printf_core) for _printf_core
    printf2.o(i.__0fprintf$2) refers to fputc.o(i.fputc) for fputc
    printf2.o(i.__0printf$2) refers to printf2.o(i._printf_core) for _printf_core
    printf2.o(i.__0printf$2) refers to fputc.o(i.fputc) for fputc
    printf2.o(i.__0printf$2) refers to stdout.o(.data) for __stdout
    printf2.o(i.__0snprintf$2) refers to printf2.o(i._printf_core) for _printf_core
    printf2.o(i.__0snprintf$2) refers to printf2.o(i._snputc) for _snputc
    printf2.o(i.__0sprintf$2) refers to printf2.o(i._printf_core) for _printf_core
    printf2.o(i.__0sprintf$2) refers to printf2.o(i._sputc) for _sputc
    printf2.o(i.__0vfprintf$2) refers to printf2.o(i._printf_core) for _printf_core
    printf2.o(i.__0vfprintf$2) refers to fputc.o(i.fputc) for fputc
    printf2.o(i.__0vprintf$2) refers to printf2.o(i._printf_core) for _printf_core
    printf2.o(i.__0vprintf$2) refers to fputc.o(i.fputc) for fputc
    printf2.o(i.__0vprintf$2) refers to stdout.o(.data) for __stdout
    printf2.o(i.__0vsnprintf$2) refers to printf2.o(i._printf_core) for _printf_core
    printf2.o(i.__0vsnprintf$2) refers to printf2.o(i._snputc) for _snputc
    printf2.o(i.__0vsprintf$2) refers to printf2.o(i._printf_core) for _printf_core
    printf2.o(i.__0vsprintf$2) refers to printf2.o(i._sputc) for _sputc
    printf3.o(i.__0fprintf$3) refers to printf3.o(i._printf_core) for _printf_core
    printf3.o(i.__0fprintf$3) refers to fputc.o(i.fputc) for fputc
    printf3.o(i.__0printf$3) refers to printf3.o(i._printf_core) for _printf_core
    printf3.o(i.__0printf$3) refers to fputc.o(i.fputc) for fputc
    printf3.o(i.__0printf$3) refers to stdout.o(.data) for __stdout
    printf3.o(i.__0snprintf$3) refers to printf3.o(i._printf_core) for _printf_core
    printf3.o(i.__0snprintf$3) refers to printf3.o(i._snputc) for _snputc
    printf3.o(i.__0sprintf$3) refers to printf3.o(i._printf_core) for _printf_core
    printf3.o(i.__0sprintf$3) refers to printf3.o(i._sputc) for _sputc
    printf3.o(i.__0vfprintf$3) refers to printf3.o(i._printf_core) for _printf_core
    printf3.o(i.__0vfprintf$3) refers to fputc.o(i.fputc) for fputc
    printf3.o(i.__0vprintf$3) refers to printf3.o(i._printf_core) for _printf_core
    printf3.o(i.__0vprintf$3) refers to fputc.o(i.fputc) for fputc
    printf3.o(i.__0vprintf$3) refers to stdout.o(.data) for __stdout
    printf3.o(i.__0vsnprintf$3) refers to printf3.o(i._printf_core) for _printf_core
    printf3.o(i.__0vsnprintf$3) refers to printf3.o(i._snputc) for _snputc
    printf3.o(i.__0vsprintf$3) refers to printf3.o(i._printf_core) for _printf_core
    printf3.o(i.__0vsprintf$3) refers to printf3.o(i._sputc) for _sputc
    printf3.o(i._printf_core) refers to uidiv.o(.text) for __aeabi_uidivmod
    printf4.o(i.__0fprintf$4) refers to printf4.o(i._printf_core) for _printf_core
    printf4.o(i.__0fprintf$4) refers to fputc.o(i.fputc) for fputc
    printf4.o(i.__0printf$4) refers to printf4.o(i._printf_core) for _printf_core
    printf4.o(i.__0printf$4) refers to fputc.o(i.fputc) for fputc
    printf4.o(i.__0printf$4) refers to stdout.o(.data) for __stdout
    printf4.o(i.__0snprintf$4) refers to printf4.o(i._printf_core) for _printf_core
    printf4.o(i.__0snprintf$4) refers to printf4.o(i._snputc) for _snputc
    printf4.o(i.__0sprintf$4) refers to printf4.o(i._printf_core) for _printf_core
    printf4.o(i.__0sprintf$4) refers to printf4.o(i._sputc) for _sputc
    printf4.o(i.__0vfprintf$4) refers to printf4.o(i._printf_core) for _printf_core
    printf4.o(i.__0vfprintf$4) refers to fputc.o(i.fputc) for fputc
    printf4.o(i.__0vprintf$4) refers to printf4.o(i._printf_core) for _printf_core
    printf4.o(i.__0vprintf$4) refers to fputc.o(i.fputc) for fputc
    printf4.o(i.__0vprintf$4) refers to stdout.o(.data) for __stdout
    printf4.o(i.__0vsnprintf$4) refers to printf4.o(i._printf_core) for _printf_core
    printf4.o(i.__0vsnprintf$4) refers to printf4.o(i._snputc) for _snputc
    printf4.o(i.__0vsprintf$4) refers to printf4.o(i._printf_core) for _printf_core
    printf4.o(i.__0vsprintf$4) refers to printf4.o(i._sputc) for _sputc
    printf4.o(i._printf_core) refers to uldiv.o(.text) for __aeabi_uldivmod
    printf5.o(i.__0fprintf$5) refers to printf5.o(i._printf_core) for _printf_core
    printf5.o(i.__0fprintf$5) refers to fputc.o(i.fputc) for fputc
    printf5.o(i.__0printf$5) refers to printf5.o(i._printf_core) for _printf_core
    printf5.o(i.__0printf$5) refers to fputc.o(i.fputc) for fputc
    printf5.o(i.__0printf$5) refers to stdout.o(.data) for __stdout
    printf5.o(i.__0snprintf$5) refers to printf5.o(i._printf_core) for _printf_core
    printf5.o(i.__0snprintf$5) refers to printf5.o(i._snputc) for _snputc
    printf5.o(i.__0sprintf$5) refers to printf5.o(i._printf_core) for _printf_core
    printf5.o(i.__0sprintf$5) refers to printf5.o(i._sputc) for _sputc
    printf5.o(i.__0vfprintf$5) refers to printf5.o(i._printf_core) for _printf_core
    printf5.o(i.__0vfprintf$5) refers to fputc.o(i.fputc) for fputc
    printf5.o(i.__0vprintf$5) refers to printf5.o(i._printf_core) for _printf_core
    printf5.o(i.__0vprintf$5) refers to fputc.o(i.fputc) for fputc
    printf5.o(i.__0vprintf$5) refers to stdout.o(.data) for __stdout
    printf5.o(i.__0vsnprintf$5) refers to printf5.o(i._printf_core) for _printf_core
    printf5.o(i.__0vsnprintf$5) refers to printf5.o(i._snputc) for _snputc
    printf5.o(i.__0vsprintf$5) refers to printf5.o(i._printf_core) for _printf_core
    printf5.o(i.__0vsprintf$5) refers to printf5.o(i._sputc) for _sputc
    printf5.o(i._printf_core) refers to uldiv.o(.text) for __aeabi_uldivmod
    printf6.o(i.__0fprintf$6) refers to printf6.o(i._printf_core) for _printf_core
    printf6.o(i.__0fprintf$6) refers to fputc.o(i.fputc) for fputc
    printf6.o(i.__0printf$6) refers to printf6.o(i._printf_core) for _printf_core
    printf6.o(i.__0printf$6) refers to fputc.o(i.fputc) for fputc
    printf6.o(i.__0printf$6) refers to stdout.o(.data) for __stdout
    printf6.o(i.__0snprintf$6) refers to printf6.o(i._printf_core) for _printf_core
    printf6.o(i.__0snprintf$6) refers to printf6.o(i._snputc) for _snputc
    printf6.o(i.__0sprintf$6) refers to printf6.o(i._printf_core) for _printf_core
    printf6.o(i.__0sprintf$6) refers to printf6.o(i._sputc) for _sputc
    printf6.o(i.__0vfprintf$6) refers to printf6.o(i._printf_core) for _printf_core
    printf6.o(i.__0vfprintf$6) refers to fputc.o(i.fputc) for fputc
    printf6.o(i.__0vprintf$6) refers to printf6.o(i._printf_core) for _printf_core
    printf6.o(i.__0vprintf$6) refers to fputc.o(i.fputc) for fputc
    printf6.o(i.__0vprintf$6) refers to stdout.o(.data) for __stdout
    printf6.o(i.__0vsnprintf$6) refers to printf6.o(i._printf_core) for _printf_core
    printf6.o(i.__0vsnprintf$6) refers to printf6.o(i._snputc) for _snputc
    printf6.o(i.__0vsprintf$6) refers to printf6.o(i._printf_core) for _printf_core
    printf6.o(i.__0vsprintf$6) refers to printf6.o(i._sputc) for _sputc
    printf6.o(i._printf_core) refers to printf6.o(i._printf_pre_padding) for _printf_pre_padding
    printf6.o(i._printf_core) refers to uidiv.o(.text) for __aeabi_uidivmod
    printf6.o(i._printf_core) refers to printf6.o(i._printf_post_padding) for _printf_post_padding
    printf7.o(i.__0fprintf$7) refers to printf7.o(i._printf_core) for _printf_core
    printf7.o(i.__0fprintf$7) refers to fputc.o(i.fputc) for fputc
    printf7.o(i.__0printf$7) refers to printf7.o(i._printf_core) for _printf_core
    printf7.o(i.__0printf$7) refers to fputc.o(i.fputc) for fputc
    printf7.o(i.__0printf$7) refers to stdout.o(.data) for __stdout
    printf7.o(i.__0snprintf$7) refers to printf7.o(i._printf_core) for _printf_core
    printf7.o(i.__0snprintf$7) refers to printf7.o(i._snputc) for _snputc
    printf7.o(i.__0sprintf$7) refers to printf7.o(i._printf_core) for _printf_core
    printf7.o(i.__0sprintf$7) refers to printf7.o(i._sputc) for _sputc
    printf7.o(i.__0vfprintf$7) refers to printf7.o(i._printf_core) for _printf_core
    printf7.o(i.__0vfprintf$7) refers to fputc.o(i.fputc) for fputc
    printf7.o(i.__0vprintf$7) refers to printf7.o(i._printf_core) for _printf_core
    printf7.o(i.__0vprintf$7) refers to fputc.o(i.fputc) for fputc
    printf7.o(i.__0vprintf$7) refers to stdout.o(.data) for __stdout
    printf7.o(i.__0vsnprintf$7) refers to printf7.o(i._printf_core) for _printf_core
    printf7.o(i.__0vsnprintf$7) refers to printf7.o(i._snputc) for _snputc
    printf7.o(i.__0vsprintf$7) refers to printf7.o(i._printf_core) for _printf_core
    printf7.o(i.__0vsprintf$7) refers to printf7.o(i._sputc) for _sputc
    printf7.o(i._printf_core) refers to printf7.o(i._printf_pre_padding) for _printf_pre_padding
    printf7.o(i._printf_core) refers to uldiv.o(.text) for __aeabi_uldivmod
    printf7.o(i._printf_core) refers to printf7.o(i._printf_post_padding) for _printf_post_padding
    printf8.o(i.__0fprintf$8) refers to printf8.o(i._printf_core) for _printf_core
    printf8.o(i.__0fprintf$8) refers to fputc.o(i.fputc) for fputc
    printf8.o(i.__0printf$8) refers to printf8.o(i._printf_core) for _printf_core
    printf8.o(i.__0printf$8) refers to fputc.o(i.fputc) for fputc
    printf8.o(i.__0printf$8) refers to stdout.o(.data) for __stdout
    printf8.o(i.__0snprintf$8) refers to printf8.o(i._printf_core) for _printf_core
    printf8.o(i.__0snprintf$8) refers to printf8.o(i._snputc) for _snputc
    printf8.o(i.__0sprintf$8) refers to printf8.o(i._printf_core) for _printf_core
    printf8.o(i.__0sprintf$8) refers to printf8.o(i._sputc) for _sputc
    printf8.o(i.__0vfprintf$8) refers to printf8.o(i._printf_core) for _printf_core
    printf8.o(i.__0vfprintf$8) refers to fputc.o(i.fputc) for fputc
    printf8.o(i.__0vprintf$8) refers to printf8.o(i._printf_core) for _printf_core
    printf8.o(i.__0vprintf$8) refers to fputc.o(i.fputc) for fputc
    printf8.o(i.__0vprintf$8) refers to stdout.o(.data) for __stdout
    printf8.o(i.__0vsnprintf$8) refers to printf8.o(i._printf_core) for _printf_core
    printf8.o(i.__0vsnprintf$8) refers to printf8.o(i._snputc) for _snputc
    printf8.o(i.__0vsprintf$8) refers to printf8.o(i._printf_core) for _printf_core
    printf8.o(i.__0vsprintf$8) refers to printf8.o(i._sputc) for _sputc
    printf8.o(i._printf_core) refers to printf8.o(i._printf_pre_padding) for _printf_pre_padding
    printf8.o(i._printf_core) refers to uldiv.o(.text) for __aeabi_uldivmod
    printf8.o(i._printf_core) refers to printf8.o(i._printf_post_padding) for _printf_post_padding
    printfa.o(i.__0fprintf) refers (Special) to iusefp.o(.text) for __I$use$fp
    printfa.o(i.__0fprintf) refers to printfa.o(i._printf_core) for _printf_core
    printfa.o(i.__0fprintf) refers to fputc.o(i.fputc) for fputc
    printfa.o(i.__0printf) refers (Special) to iusefp.o(.text) for __I$use$fp
    printfa.o(i.__0printf) refers to printfa.o(i._printf_core) for _printf_core
    printfa.o(i.__0printf) refers to fputc.o(i.fputc) for fputc
    printfa.o(i.__0printf) refers to stdout.o(.data) for __stdout
    printfa.o(i.__0snprintf) refers (Special) to iusefp.o(.text) for __I$use$fp
    printfa.o(i.__0snprintf) refers to printfa.o(i._printf_core) for _printf_core
    printfa.o(i.__0snprintf) refers to printfa.o(i._snputc) for _snputc
    printfa.o(i.__0sprintf) refers (Special) to iusefp.o(.text) for __I$use$fp
    printfa.o(i.__0sprintf) refers to printfa.o(i._printf_core) for _printf_core
    printfa.o(i.__0sprintf) refers to printfa.o(i._sputc) for _sputc
    printfa.o(i.__0vfprintf) refers (Special) to iusefp.o(.text) for __I$use$fp
    printfa.o(i.__0vfprintf) refers to printfa.o(i._printf_core) for _printf_core
    printfa.o(i.__0vfprintf) refers to fputc.o(i.fputc) for fputc
    printfa.o(i.__0vprintf) refers (Special) to iusefp.o(.text) for __I$use$fp
    printfa.o(i.__0vprintf) refers to printfa.o(i._printf_core) for _printf_core
    printfa.o(i.__0vprintf) refers to fputc.o(i.fputc) for fputc
    printfa.o(i.__0vprintf) refers to stdout.o(.data) for __stdout
    printfa.o(i.__0vsnprintf) refers (Special) to iusefp.o(.text) for __I$use$fp
    printfa.o(i.__0vsnprintf) refers to printfa.o(i._printf_core) for _printf_core
    printfa.o(i.__0vsnprintf) refers to printfa.o(i._snputc) for _snputc
    printfa.o(i.__0vsprintf) refers (Special) to iusefp.o(.text) for __I$use$fp
    printfa.o(i.__0vsprintf) refers to printfa.o(i._printf_core) for _printf_core
    printfa.o(i.__0vsprintf) refers to printfa.o(i._sputc) for _sputc
    printfa.o(i._fp_digits) refers (Special) to iusefp.o(.text) for __I$use$fp
    printfa.o(i._fp_digits) refers to dmul.o(.text) for __aeabi_dmul
    printfa.o(i._fp_digits) refers to ddiv.o(.text) for __aeabi_ddiv
    printfa.o(i._fp_digits) refers to cdrcmple.o(.text) for __aeabi_cdrcmple
    printfa.o(i._fp_digits) refers to dadd.o(.text) for __aeabi_dadd
    printfa.o(i._fp_digits) refers to dfixul.o(.text) for __aeabi_d2ulz
    printfa.o(i._fp_digits) refers to uldiv.o(.text) for __aeabi_uldivmod
    printfa.o(i._printf_core) refers (Special) to iusefp.o(.text) for __I$use$fp
    printfa.o(i._printf_core) refers to printfa.o(i._printf_pre_padding) for _printf_pre_padding
    printfa.o(i._printf_core) refers to uldiv.o(.text) for __aeabi_uldivmod
    printfa.o(i._printf_core) refers to printfa.o(i._printf_post_padding) for _printf_post_padding
    printfa.o(i._printf_core) refers to printfa.o(i._fp_digits) for _fp_digits
    printfa.o(i._printf_core) refers to uidiv.o(.text) for __aeabi_uidivmod
    printfa.o(i._printf_post_padding) refers (Special) to iusefp.o(.text) for __I$use$fp
    printfa.o(i._printf_pre_padding) refers (Special) to iusefp.o(.text) for __I$use$fp
    printfa.o(i._snputc) refers (Special) to iusefp.o(.text) for __I$use$fp
    printfa.o(i._sputc) refers (Special) to iusefp.o(.text) for __I$use$fp
    malloc.o(i.free) refers to mvars.o(.data) for __microlib_freelist
    malloc.o(i.malloc) refers to mvars.o(.data) for __microlib_freelist_initialised
    malloc.o(i.malloc) refers to mvars.o(.data) for __microlib_freelist
    malloc.o(i.malloc) refers to startup_rvmdk.o(HEAP) for __heap_base
    mallocr.o(i.__free$realloc) refers to mvars.o(.data) for __microlib_freelist
    mallocr.o(i.__malloc$realloc) refers to mallocr.o(i.internal_alloc) for internal_alloc
    mallocr.o(i.__malloc$realloc) refers to mvars.o(.data) for __microlib_freelist_initialised
    mallocr.o(i.__malloc$realloc) refers to startup_rvmdk.o(HEAP) for __heap_base
    mallocr.o(i.__malloc$realloc) refers to mvars.o(.data) for __microlib_freelist
    mallocr.o(i.internal_alloc) refers to memcpya.o(.text) for __aeabi_memcpy
    mallocr.o(i.internal_alloc) refers to mvars.o(.data) for __microlib_freelist
    mallocr.o(i.realloc) refers to mallocr.o(i.__free$realloc) for __free$realloc
    mallocr.o(i.realloc) refers to mallocr.o(i.internal_alloc) for internal_alloc
    mallocr.o(i.realloc) refers to mallocr.o(i.__malloc$realloc) for __malloc$realloc
    mallocr.o(i.realloc) refers to mvars.o(.data) for __microlib_freelist
    malloca.o(i.__aligned_malloc) refers to mvars.o(.data) for __microlib_freelist_initialised
    malloca.o(i.__aligned_malloc) refers to mvars.o(.data) for __microlib_freelist
    malloca.o(i.__aligned_malloc) refers to startup_rvmdk.o(HEAP) for __heap_base
    malloca.o(i.__free$memalign) refers to mvars.o(.data) for __microlib_freelist
    malloca.o(i.__malloc$memalign) refers to malloca.o(i.__aligned_malloc) for __aligned_malloc
    mallocra.o(i.__aligned_malloc$realloc) refers to mallocra.o(i.internal_alloc) for internal_alloc
    mallocra.o(i.__aligned_malloc$realloc) refers to mvars.o(.data) for __microlib_freelist_initialised
    mallocra.o(i.__aligned_malloc$realloc) refers to startup_rvmdk.o(HEAP) for __heap_base
    mallocra.o(i.__aligned_malloc$realloc) refers to mvars.o(.data) for __microlib_freelist
    mallocra.o(i.__free$realloc$memalign) refers to mvars.o(.data) for __microlib_freelist
    mallocra.o(i.__malloc$realloc$memalign) refers to mallocra.o(i.__aligned_malloc$realloc) for __aligned_malloc$realloc
    mallocra.o(i.__realloc$memalign) refers to mallocra.o(i.__free$realloc$memalign) for __free$realloc$memalign
    mallocra.o(i.__realloc$memalign) refers to mallocra.o(i.internal_alloc) for internal_alloc
    mallocra.o(i.__realloc$memalign) refers to mallocra.o(i.__malloc$realloc$memalign) for __malloc$realloc$memalign
    mallocra.o(i.__realloc$memalign) refers to mvars.o(.data) for __microlib_freelist
    mallocra.o(i.internal_alloc) refers to memcpya.o(.text) for __aeabi_memcpy
    mallocra.o(i.internal_alloc) refers to mvars.o(.data) for __microlib_freelist
    dadd.o(.text) refers (Special) to iusefp.o(.text) for __I$use$fp
    dadd.o(.text) refers to llshl.o(.text) for __aeabi_llsl
    dadd.o(.text) refers to llsshr.o(.text) for __aeabi_lasr
    dadd.o(.text) refers to depilogue.o(.text) for _double_epilogue
    dmul.o(.text) refers (Special) to iusefp.o(.text) for __I$use$fp
    dmul.o(.text) refers to depilogue.o(.text) for _double_epilogue
    ddiv.o(.text) refers (Special) to iusefp.o(.text) for __I$use$fp
    ddiv.o(.text) refers to depilogue.o(.text) for _double_round
    dfltui.o(.text) refers (Special) to iusefp.o(.text) for __I$use$fp
    dfltui.o(.text) refers to depilogue.o(.text) for _double_epilogue
    dfixi.o(.text) refers (Special) to iusefp.o(.text) for __I$use$fp
    dfixi.o(.text) refers to llushr.o(.text) for __aeabi_llsr
    dfixui.o(.text) refers (Special) to iusefp.o(.text) for __I$use$fp
    dfixui.o(.text) refers to llushr.o(.text) for __aeabi_llsr
    f2d.o(.text) refers (Special) to iusefp.o(.text) for __I$use$fp
    d2f.o(.text) refers (Special) to iusefp.o(.text) for __I$use$fp
    d2f.o(.text) refers to fepilogue.o(.text) for _float_round
    entry2.o(.ARM.Collect$$$$00000001) refers to entry2.o(.ARM.Collect$$$$00002712) for __lit__00000000
    entry2.o(.ARM.Collect$$$$00002712) refers to startup_rvmdk.o(STACK) for __initial_sp
    entry2.o(__vectab_stack_and_reset_area) refers to startup_rvmdk.o(STACK) for __initial_sp
    entry2.o(__vectab_stack_and_reset_area) refers to entry.o(.ARM.Collect$$$$00000000) for __main
    entry5.o(.ARM.Collect$$$$00000004) refers to init.o(.text) for __scatterload
    entry9a.o(.ARM.Collect$$$$0000000B) refers to main.o(i.main) for main
    entry9b.o(.ARM.Collect$$$$0000000C) refers to main.o(i.main) for main
    fputc.o(i.fputc) refers (Special) to iusesemip.o(.text) for __I$use$semihosting$fputc
    fputc.o(i.fputc) refers (Special) to semi.o(.text) for __semihosting_library_function
    uldiv.o(.text) refers to llushr.o(.text) for __aeabi_llsr
    uldiv.o(.text) refers to llshl.o(.text) for __aeabi_llsl
    depilogue.o(.text) refers to llshl.o(.text) for __aeabi_llsl
    depilogue.o(.text) refers to llushr.o(.text) for __aeabi_llsr
    dfixul.o(.text) refers to llushr.o(.text) for __aeabi_llsr
    dfixul.o(.text) refers to llshl.o(.text) for __aeabi_llsl
    init.o(.text) refers to entry5.o(.ARM.Collect$$$$00000004) for __main_after_scatterload


==============================================================================

Removing Unused input sections from the image.

    Removing main.o(.bss), (1348 bytes).
    Removing main.o(.constdata), (32 bytes).
    Removing main.o(.data), (130 bytes).
    Removing control.o(i.PAUSE), (24 bytes).
    Removing control.o(i.PLAY), (24 bytes).
    Removing control.o(i.STOP), (24 bytes).
    Removing bmp.o(i.DrawPixel), (20 bytes).
    Removing bmp.o(i.RGB888ToRGB565), (24 bytes).
    Removing startup_rvmdk.o(.text), (0 bytes).
    Removing tft.o(i.SysTickHandler), (32 bytes).
    Removing tft.o(i.TFTLCD_EnterSleep), (120 bytes).
    Removing tft.o(i.TFTLCD_ExitSleep), (124 bytes).
    Removing tft.o(i.TFT_DrawHorizontalLine), (44 bytes).
    Removing tft.o(i.TFT_DrawVerticalLine), (44 bytes).
    Removing tft.o(i.TFT_REFRESH_GRAM), (20 bytes).
    Removing tft.o(i.TFT_ShowData), (304 bytes).
    Removing tft.o(i.TFT_ShowPicture), (80 bytes).
    Removing tft.o(.bss), (1920 bytes).
    Removing touch.o(.bss), (4000 bytes).
    Removing led.o(i.LED_Test), (2 bytes).
    Removing timer.o(.constdata), (32 bytes).
    Removing uartstdio.o(i.UARTStdioConfig), (108 bytes).
    Removing uartstdio.o(i.UARTgetc), (24 bytes).
    Removing uartstdio.o(i.UARTgets), (156 bytes).
    Removing uartstdio.o(i.UARTprintf), (26 bytes).
    Removing uartstdio.o(i.UARTvprintf), (592 bytes).
    Removing uartstdio.o(i.UARTwrite), (64 bytes).
    Removing uartstdio.o(.constdata), (36 bytes).
    Removing uartstdio.o(.conststring), (17 bytes).
    Removing uartstdio.o(.data), (5 bytes).
    Removing buzzer.o(i.BUZZER_Close), (20 bytes).
    Removing buzzer.o(i.BUZZER_Open), (20 bytes).
    Removing buzzer.o(i.BUZZER_Test), (8 bytes).
    Removing sd.o(i.Cmd_cat), (204 bytes).
    Removing sd.o(i.Cmd_cd), (264 bytes).
    Removing sd.o(i.Cmd_help), (100 bytes).
    Removing sd.o(i.Cmd_ls), (436 bytes).
    Removing sd.o(i.Cmd_pwd), (28 bytes).
    Removing sd.o(i.SD_Init), (2 bytes).
    Removing sd.o(i.SD_Test), (300 bytes).
    Removing sd.o(i.StringFromFresult), (60 bytes).
    Removing sd.o(i.SysTickIntHandler), (8 bytes).
    Removing sd.o(.bss), (1352 bytes).
    Removing sd.o(.conststring), (549 bytes).
    Removing sd.o(.data), (348 bytes).
    Removing accelerator.o(i.ACCELERATOR_Test), (384 bytes).
    Removing adc.o(i.ADC0_Test), (436 bytes).
    Removing adc.o(i.EXADC_Init), (180 bytes).
    Removing adc.o(i.EXADC_Read), (444 bytes).
    Removing adc.o(i.EXADC_Test), (116 bytes).
    Removing adc.o(.constdata), (32 bytes).
    Removing pca9557.o(i.PCA9557_Show_Voltage), (66 bytes).
    Removing oled_i2c.o(i.OLED_DrawBMP), (116 bytes).
    Removing oled_i2c.o(i.OLED_OFF), (22 bytes).
    Removing oled_i2c.o(i.OLED_ON), (22 bytes).
    Removing oled_i2c.o(i.OLED_ShowCN), (84 bytes).
    Removing oled_i2c.o(.data), (1408 bytes).
    Removing i2c.o(i.I2C_Initial), (12 bytes).
    Removing i2c.o(i.i2c_read), (128 bytes).
    Removing i2c.o(.data), (6 bytes).
    Removing cmdline.o(i.CmdLineProcess), (124 bytes).
    Removing cmdline.o(.bss), (36 bytes).
    Removing ff.o(i.dir_read), (110 bytes).
    Removing ff.o(i.dir_remove), (44 bytes).
    Removing ff.o(i.f_chmod), (84 bytes).
    Removing ff.o(i.f_getfree), (260 bytes).
    Removing ff.o(i.f_mkdir), (352 bytes).
    Removing ff.o(i.f_mkfs), (1588 bytes).
    Removing ff.o(i.f_opendir), (112 bytes).
    Removing ff.o(i.f_readdir), (88 bytes).
    Removing ff.o(i.f_rename), (276 bytes).
    Removing ff.o(i.f_stat), (58 bytes).
    Removing ff.o(i.f_truncate), (154 bytes).
    Removing ff.o(i.f_unlink), (170 bytes).
    Removing ff.o(i.f_utime), (86 bytes).
    Removing ff.o(i.f_write), (524 bytes).
    Removing ff.o(i.get_fileinfo), (152 bytes).
    Removing ff.o(.constdata), (44 bytes).
    Removing heap_2.o(i.vPortInitialiseBlocks), (2 bytes).
    Removing heap_2.o(i.xPortGetFreeHeapSize), (12 bytes).
    Removing port.o(i.vPortEndScheduler), (2 bytes).
    Removing queue.o(i.ucQueueGetQueueType), (8 bytes).
    Removing queue.o(i.uxQueueGetQueueNumber), (6 bytes).
    Removing queue.o(i.uxQueueMessagesWaiting), (18 bytes).
    Removing queue.o(i.uxQueueMessagesWaitingFromISR), (6 bytes).
    Removing queue.o(i.uxQueueSpacesAvailable), (24 bytes).
    Removing queue.o(i.vQueueDelete), (20 bytes).
    Removing queue.o(i.vQueueSetQueueNumber), (4 bytes).
    Removing queue.o(i.vQueueUnregisterQueue), (44 bytes).
    Removing queue.o(i.xQueueAltGenericReceive), (268 bytes).
    Removing queue.o(i.xQueueAltGenericSend), (192 bytes).
    Removing queue.o(i.xQueueCreateMutex), (76 bytes).
    Removing queue.o(i.xQueueGiveMutexRecursive), (48 bytes).
    Removing queue.o(i.xQueueIsQueueEmptyFromISR), (14 bytes).
    Removing queue.o(i.xQueueIsQueueFullFromISR), (18 bytes).
    Removing queue.o(i.xQueuePeekFromISR), (74 bytes).
    Removing queue.o(i.xQueueReceiveFromISR), (116 bytes).
    Removing queue.o(i.xQueueTakeMutexRecursive), (60 bytes).
    Removing tasks.o(i.prvListTaskWithinSingleList), (176 bytes).
    Removing tasks.o(i.prvTaskCheckFreeStackSpace), (22 bytes).
    Removing tasks.o(i.prvTaskIsTaskSuspended), (64 bytes).
    Removing tasks.o(i.ulTaskNotifyTake), (196 bytes).
    Removing tasks.o(i.uxTaskGetNumberOfTasks), (12 bytes).
    Removing tasks.o(i.uxTaskGetStackHighWaterMark), (40 bytes).
    Removing tasks.o(i.uxTaskGetSystemState), (156 bytes).
    Removing tasks.o(i.uxTaskGetTaskNumber), (14 bytes).
    Removing tasks.o(i.uxTaskPriorityGet), (36 bytes).
    Removing tasks.o(i.uxTaskPriorityGetFromISR), (56 bytes).
    Removing tasks.o(i.vTaskDelayUntil), (156 bytes).
    Removing tasks.o(i.vTaskDelete), (184 bytes).
    Removing tasks.o(i.vTaskEndScheduler), (36 bytes).
    Removing tasks.o(i.vTaskNotifyGiveFromISR), (168 bytes).
    Removing tasks.o(i.vTaskPrioritySet), (244 bytes).
    Removing tasks.o(i.vTaskResume), (124 bytes).
    Removing tasks.o(i.vTaskSetTaskNumber), (8 bytes).
    Removing tasks.o(i.vTaskSuspend), (192 bytes).
    Removing tasks.o(i.xTaskGenericNotify), (196 bytes).
    Removing tasks.o(i.xTaskGenericNotifyFromISR), (240 bytes).
    Removing tasks.o(i.xTaskGetCurrentTaskHandle), (12 bytes).
    Removing tasks.o(i.xTaskGetTickCountFromISR), (12 bytes).
    Removing tasks.o(i.xTaskNotifyStateClear), (56 bytes).
    Removing tasks.o(i.xTaskNotifyWait), (228 bytes).
    Removing tasks.o(i.xTaskResumeFromISR), (152 bytes).
    Removing timers.o(i.pcTimerGetTimerName), (8 bytes).
    Removing timers.o(i.pvTimerGetTimerID), (20 bytes).
    Removing timers.o(i.vTimerSetTimerID), (20 bytes).
    Removing timers.o(i.xTimerIsTimerActive), (32 bytes).
    Removing event_groups.o(i.uxEventGroupGetNumber), (14 bytes).
    Removing event_groups.o(i.vEventGroupClearBitsCallback), (16 bytes).
    Removing event_groups.o(i.vEventGroupDelete), (42 bytes).
    Removing event_groups.o(i.vEventGroupSetBitsCallback), (16 bytes).
    Removing event_groups.o(i.xEventGroupClearBits), (32 bytes).
    Removing event_groups.o(i.xEventGroupGetBitsFromISR), (44 bytes).
    Removing event_groups.o(i.xEventGroupSync), (164 bytes).
    Removing adc.o(i.ADCBusy), (8 bytes).
    Removing adc.o(i.ADCClockConfigGet), (32 bytes).
    Removing adc.o(i.ADCClockConfigSet), (28 bytes).
    Removing adc.o(i.ADCComparatorConfigure), (10 bytes).
    Removing adc.o(i.ADCComparatorIntClear), (4 bytes).
    Removing adc.o(i.ADCComparatorIntDisable), (18 bytes).
    Removing adc.o(i.ADCComparatorIntEnable), (16 bytes).
    Removing adc.o(i.ADCComparatorIntStatus), (4 bytes).
    Removing adc.o(i.ADCComparatorRegionSet), (14 bytes).
    Removing adc.o(i.ADCComparatorReset), (40 bytes).
    Removing adc.o(i.ADCHardwareOversampleConfigure), (18 bytes).
    Removing adc.o(i.ADCIntClearEx), (4 bytes).
    Removing adc.o(i.ADCIntDisable), (16 bytes).
    Removing adc.o(i.ADCIntDisableEx), (10 bytes).
    Removing adc.o(i.ADCIntEnable), (16 bytes).
    Removing adc.o(i.ADCIntEnableEx), (8 bytes).
    Removing adc.o(i.ADCIntRegister), (104 bytes).
    Removing adc.o(i.ADCIntStatusEx), (22 bytes).
    Removing adc.o(i.ADCIntUnregister), (108 bytes).
    Removing adc.o(i.ADCPhaseDelayGet), (4 bytes).
    Removing adc.o(i.ADCPhaseDelaySet), (4 bytes).
    Removing adc.o(i.ADCReferenceGet), (8 bytes).
    Removing adc.o(i.ADCReferenceSet), (12 bytes).
    Removing adc.o(i.ADCSequenceDMADisable), (18 bytes).
    Removing adc.o(i.ADCSequenceDMAEnable), (16 bytes).
    Removing adc.o(i.ADCSequenceDisable), (16 bytes).
    Removing adc.o(i.ADCSequenceOverflow), (12 bytes).
    Removing adc.o(i.ADCSequenceOverflowClear), (10 bytes).
    Removing adc.o(i.ADCSequenceUnderflow), (12 bytes).
    Removing adc.o(i.ADCSequenceUnderflowClear), (10 bytes).
    Removing adc.o(i.ADCSoftwareOversampleConfigure), (44 bytes).
    Removing adc.o(i.ADCSoftwareOversampleDataGet), (88 bytes).
    Removing adc.o(i.ADCSoftwareOversampleStepConfigure), (168 bytes).
    Removing adc.o(.data), (6 bytes).
    Removing epi.o(i.EPIConfigGPModeSet), (12 bytes).
    Removing epi.o(i.EPIConfigHB16CSSet), (30 bytes).
    Removing epi.o(i.EPIConfigHB16TimingSet), (10 bytes).
    Removing epi.o(i.EPIConfigHB8CSSet), (30 bytes).
    Removing epi.o(i.EPIConfigHB8Set), (32 bytes).
    Removing epi.o(i.EPIConfigHB8TimingSet), (10 bytes).
    Removing epi.o(i.EPIConfigSDRAMSet), (12 bytes).
    Removing epi.o(i.EPIDMATxCount), (8 bytes).
    Removing epi.o(i.EPIDividerCSSet), (58 bytes).
    Removing epi.o(i.EPIDividerSet), (4 bytes).
    Removing epi.o(i.EPIFIFOConfig), (6 bytes).
    Removing epi.o(i.EPIIntDisable), (14 bytes).
    Removing epi.o(i.EPIIntEnable), (12 bytes).
    Removing epi.o(i.EPIIntErrorClear), (6 bytes).
    Removing epi.o(i.EPIIntErrorStatus), (6 bytes).
    Removing epi.o(i.EPIIntRegister), (48 bytes).
    Removing epi.o(i.EPIIntStatus), (14 bytes).
    Removing epi.o(i.EPIIntUnregister), (48 bytes).
    Removing epi.o(i.EPINonBlockingReadAvail), (4 bytes).
    Removing epi.o(i.EPINonBlockingReadConfigure), (10 bytes).
    Removing epi.o(i.EPINonBlockingReadCount), (8 bytes).
    Removing epi.o(i.EPINonBlockingReadGet16), (34 bytes).
    Removing epi.o(i.EPINonBlockingReadGet32), (34 bytes).
    Removing epi.o(i.EPINonBlockingReadGet8), (34 bytes).
    Removing epi.o(i.EPINonBlockingReadStart), (8 bytes).
    Removing epi.o(i.EPINonBlockingReadStop), (10 bytes).
    Removing epi.o(i.EPIPSRAMConfigRegGet), (30 bytes).
    Removing epi.o(i.EPIPSRAMConfigRegGetNonBlocking), (38 bytes).
    Removing epi.o(i.EPIPSRAMConfigRegRead), (24 bytes).
    Removing epi.o(i.EPIPSRAMConfigRegSet), (32 bytes).
    Removing epi.o(i.EPIWriteFIFOCountGet), (6 bytes).
    Removing fpu.o(i.FPUDisable), (16 bytes).
    Removing fpu.o(i.FPUFlushToZeroModeSet), (20 bytes).
    Removing fpu.o(i.FPUHalfPrecisionModeSet), (20 bytes).
    Removing fpu.o(i.FPUNaNModeSet), (20 bytes).
    Removing fpu.o(i.FPURoundingModeSet), (20 bytes).
    Removing fpu.o(i.FPUStackingDisable), (16 bytes).
    Removing fpu.o(i.FPUStackingEnable), (20 bytes).
    Removing gpio.o(i.GPIOADCTriggerDisable), (14 bytes).
    Removing gpio.o(i.GPIOADCTriggerEnable), (12 bytes).
    Removing gpio.o(i.GPIODMATriggerDisable), (14 bytes).
    Removing gpio.o(i.GPIODMATriggerEnable), (12 bytes).
    Removing gpio.o(i.GPIODirModeGet), (34 bytes).
    Removing gpio.o(i.GPIOIntDisable), (14 bytes).
    Removing gpio.o(i.GPIOIntRegisterPin), (30 bytes).
    Removing gpio.o(i.GPIOIntStatus), (14 bytes).
    Removing gpio.o(i.GPIOIntTypeGet), (68 bytes).
    Removing gpio.o(i.GPIOIntUnregister), (22 bytes).
    Removing gpio.o(i.GPIOIntUnregisterPin), (26 bytes).
    Removing gpio.o(i.GPIOPadConfigGet), (204 bytes).
    Removing gpio.o(i.GPIOPinTypeCAN), (28 bytes).
    Removing gpio.o(i.GPIOPinTypeComparator), (28 bytes).
    Removing gpio.o(i.GPIOPinTypeComparatorOutput), (28 bytes).
    Removing gpio.o(i.GPIOPinTypeDIVSCLK), (28 bytes).
    Removing gpio.o(i.GPIOPinTypeEthernetLED), (28 bytes).
    Removing gpio.o(i.GPIOPinTypeEthernetMII), (28 bytes).
    Removing gpio.o(i.GPIOPinTypeGPIOOutputOD), (28 bytes).
    Removing gpio.o(i.GPIOPinTypeHibernateRTCCLK), (28 bytes).
    Removing gpio.o(i.GPIOPinTypeLCD), (28 bytes).
    Removing gpio.o(i.GPIOPinTypeOneWire), (28 bytes).
    Removing gpio.o(i.GPIOPinTypePWM), (28 bytes).
    Removing gpio.o(i.GPIOPinTypeQEI), (28 bytes).
    Removing gpio.o(i.GPIOPinTypeTimer), (28 bytes).
    Removing gpio.o(i.GPIOPinTypeTrace), (28 bytes).
    Removing gpio.o(i.GPIOPinTypeUSBAnalog), (28 bytes).
    Removing gpio.o(i.GPIOPinTypeUSBDigital), (28 bytes).
    Removing gpio.o(i.GPIOPinTypeWakeHigh), (30 bytes).
    Removing gpio.o(i.GPIOPinTypeWakeLow), (30 bytes).
    Removing gpio.o(i.GPIOPinWakeStatus), (6 bytes).
    Removing i2c.o(i.I2CFIFODataGet), (16 bytes).
    Removing i2c.o(i.I2CFIFODataGetNonBlocking), (24 bytes).
    Removing i2c.o(i.I2CFIFODataPut), (16 bytes).
    Removing i2c.o(i.I2CFIFODataPutNonBlocking), (20 bytes).
    Removing i2c.o(i.I2CFIFOStatus), (6 bytes).
    Removing i2c.o(i.I2CIntRegister), (96 bytes).
    Removing i2c.o(i.I2CIntUnregister), (96 bytes).
    Removing i2c.o(i.I2CLoopbackEnable), (10 bytes).
    Removing i2c.o(i.I2CMasterBurstCountGet), (4 bytes).
    Removing i2c.o(i.I2CMasterBurstLengthSet), (4 bytes).
    Removing i2c.o(i.I2CMasterBusBusy), (12 bytes).
    Removing i2c.o(i.I2CMasterDataGet), (4 bytes).
    Removing i2c.o(i.I2CMasterDisable), (10 bytes).
    Removing i2c.o(i.I2CMasterGlitchFilterConfigSet), (84 bytes).
    Removing i2c.o(i.I2CMasterIntClear), (8 bytes).
    Removing i2c.o(i.I2CMasterIntClearEx), (4 bytes).
    Removing i2c.o(i.I2CMasterIntDisable), (6 bytes).
    Removing i2c.o(i.I2CMasterIntDisableEx), (10 bytes).
    Removing i2c.o(i.I2CMasterIntEnable), (6 bytes).
    Removing i2c.o(i.I2CMasterIntEnableEx), (8 bytes).
    Removing i2c.o(i.I2CMasterIntStatus), (24 bytes).
    Removing i2c.o(i.I2CMasterIntStatusEx), (10 bytes).
    Removing i2c.o(i.I2CMasterLineStateGet), (4 bytes).
    Removing i2c.o(i.I2CMasterTimeoutSet), (4 bytes).
    Removing i2c.o(i.I2CRxFIFOConfigSet), (22 bytes).
    Removing i2c.o(i.I2CRxFIFOFlush), (14 bytes).
    Removing i2c.o(i.I2CSlaveACKOverride), (22 bytes).
    Removing i2c.o(i.I2CSlaveACKValueSet), (22 bytes).
    Removing i2c.o(i.I2CSlaveAddressSet), (24 bytes).
    Removing i2c.o(i.I2CSlaveDataGet), (6 bytes).
    Removing i2c.o(i.I2CSlaveDataPut), (6 bytes).
    Removing i2c.o(i.I2CSlaveDisable), (16 bytes).
    Removing i2c.o(i.I2CSlaveFIFODisable), (8 bytes).
    Removing i2c.o(i.I2CSlaveFIFOEnable), (10 bytes).
    Removing i2c.o(i.I2CSlaveInit), (20 bytes).
    Removing i2c.o(i.I2CSlaveIntClear), (8 bytes).
    Removing i2c.o(i.I2CSlaveIntClearEx), (6 bytes).
    Removing i2c.o(i.I2CSlaveIntDisable), (14 bytes).
    Removing i2c.o(i.I2CSlaveIntDisableEx), (14 bytes).
    Removing i2c.o(i.I2CSlaveIntEnable), (14 bytes).
    Removing i2c.o(i.I2CSlaveIntEnableEx), (12 bytes).
    Removing i2c.o(i.I2CSlaveIntStatus), (28 bytes).
    Removing i2c.o(i.I2CSlaveIntStatusEx), (14 bytes).
    Removing i2c.o(i.I2CSlaveStatus), (6 bytes).
    Removing i2c.o(i.I2CTxFIFOConfigSet), (24 bytes).
    Removing i2c.o(i.I2CTxFIFOFlush), (14 bytes).
    Removing i2c.o(.constdata), (128 bytes).
    Removing interrupt.o(i.IntDisable), (100 bytes).
    Removing interrupt.o(i.IntIsEnabled), (96 bytes).
    Removing interrupt.o(i.IntMasterDisable), (14 bytes).
    Removing interrupt.o(i.IntPendClear), (68 bytes).
    Removing interrupt.o(i.IntPendSet), (84 bytes).
    Removing interrupt.o(i.IntPriorityGet), (28 bytes).
    Removing interrupt.o(i.IntPriorityGroupingGet), (36 bytes).
    Removing interrupt.o(i.IntPriorityGroupingSet), (28 bytes).
    Removing interrupt.o(i.IntPriorityMaskGet), (4 bytes).
    Removing interrupt.o(i.IntPriorityMaskSet), (4 bytes).
    Removing interrupt.o(i.IntTrigger), (12 bytes).
    Removing interrupt.o(i.IntUnregister), (20 bytes).
    Removing interrupt.o(i._IntDefaultHandler), (2 bytes).
    Removing ssi.o(i.SSIAdvDataPutFrameEnd), (20 bytes).
    Removing ssi.o(i.SSIAdvDataPutFrameEndNonBlocking), (26 bytes).
    Removing ssi.o(i.SSIAdvFrameHoldDisable), (10 bytes).
    Removing ssi.o(i.SSIAdvFrameHoldEnable), (10 bytes).
    Removing ssi.o(i.SSIAdvModeSet), (12 bytes).
    Removing ssi.o(i.SSIBusy), (8 bytes).
    Removing ssi.o(i.SSIClockSourceGet), (6 bytes).
    Removing ssi.o(i.SSIClockSourceSet), (6 bytes).
    Removing ssi.o(i.SSIDMADisable), (10 bytes).
    Removing ssi.o(i.SSIDMAEnable), (8 bytes).
    Removing ssi.o(i.SSIDataPutNonBlocking), (16 bytes).
    Removing ssi.o(i.SSIDisable), (10 bytes).
    Removing ssi.o(i.SSIIntClear), (4 bytes).
    Removing ssi.o(i.SSIIntDisable), (10 bytes).
    Removing ssi.o(i.SSIIntEnable), (8 bytes).
    Removing ssi.o(i.SSIIntRegister), (88 bytes).
    Removing ssi.o(i.SSIIntStatus), (10 bytes).
    Removing ssi.o(i.SSIIntUnregister), (88 bytes).
    Removing ssi.o(.constdata), (64 bytes).
    Removing sysctl.o(i.SysCtlAltClkConfig), (12 bytes).
    Removing sysctl.o(i.SysCtlClockGet), (340 bytes).
    Removing sysctl.o(i.SysCtlClockOutConfig), (20 bytes).
    Removing sysctl.o(i.SysCtlClockSet), (288 bytes).
    Removing sysctl.o(i.SysCtlDeepSleep), (32 bytes).
    Removing sysctl.o(i.SysCtlDeepSleepClockConfigSet), (112 bytes).
    Removing sysctl.o(i.SysCtlDeepSleepClockSet), (12 bytes).
    Removing sysctl.o(i.SysCtlDeepSleepPowerSet), (12 bytes).
    Removing sysctl.o(i.SysCtlFlashSectorSizeGet), (56 bytes).
    Removing sysctl.o(i.SysCtlFlashSizeGet), (56 bytes).
    Removing sysctl.o(i.SysCtlGPIOAHBDisable), (28 bytes).
    Removing sysctl.o(i.SysCtlIntClear), (12 bytes).
    Removing sysctl.o(i.SysCtlIntDisable), (16 bytes).
    Removing sysctl.o(i.SysCtlIntEnable), (16 bytes).
    Removing sysctl.o(i.SysCtlIntRegister), (20 bytes).
    Removing sysctl.o(i.SysCtlIntStatus), (16 bytes).
    Removing sysctl.o(i.SysCtlIntUnregister), (18 bytes).
    Removing sysctl.o(i.SysCtlLDODeepSleepGet), (12 bytes).
    Removing sysctl.o(i.SysCtlLDODeepSleepSet), (12 bytes).
    Removing sysctl.o(i.SysCtlLDOSleepGet), (12 bytes).
    Removing sysctl.o(i.SysCtlLDOSleepSet), (12 bytes).
    Removing sysctl.o(i.SysCtlMOSCConfigSet), (12 bytes).
    Removing sysctl.o(i.SysCtlNMIClear), (16 bytes).
    Removing sysctl.o(i.SysCtlNMIStatus), (12 bytes).
    Removing sysctl.o(i.SysCtlPIOSCCalibrate), (76 bytes).
    Removing sysctl.o(i.SysCtlPWMClockGet), (24 bytes).
    Removing sysctl.o(i.SysCtlPWMClockSet), (20 bytes).
    Removing sysctl.o(i.SysCtlPeripheralClockGating), (68 bytes).
    Removing sysctl.o(i.SysCtlPeripheralDeepSleepDisable), (40 bytes).
    Removing sysctl.o(i.SysCtlPeripheralDeepSleepEnable), (40 bytes).
    Removing sysctl.o(i.SysCtlPeripheralDisable), (40 bytes).
    Removing sysctl.o(i.SysCtlPeripheralPowerOff), (40 bytes).
    Removing sysctl.o(i.SysCtlPeripheralPowerOn), (40 bytes).
    Removing sysctl.o(i.SysCtlPeripheralPresent), (44 bytes).
    Removing sysctl.o(i.SysCtlPeripheralReady), (44 bytes).
    Removing sysctl.o(i.SysCtlPeripheralReset), (60 bytes).
    Removing sysctl.o(i.SysCtlPeripheralSleepDisable), (40 bytes).
    Removing sysctl.o(i.SysCtlPeripheralSleepEnable), (40 bytes).
    Removing sysctl.o(i.SysCtlReset), (16 bytes).
    Removing sysctl.o(i.SysCtlResetBehaviorGet), (12 bytes).
    Removing sysctl.o(i.SysCtlResetBehaviorSet), (12 bytes).
    Removing sysctl.o(i.SysCtlResetCauseClear), (16 bytes).
    Removing sysctl.o(i.SysCtlResetCauseGet), (12 bytes).
    Removing sysctl.o(i.SysCtlSRAMSizeGet), (16 bytes).
    Removing sysctl.o(i.SysCtlSleep), (4 bytes).
    Removing sysctl.o(i.SysCtlSleepPowerSet), (12 bytes).
    Removing sysctl.o(i.SysCtlUSBPLLDisable), (16 bytes).
    Removing sysctl.o(i.SysCtlUSBPLLEnable), (16 bytes).
    Removing sysctl.o(i.SysCtlVCOGet), (120 bytes).
    Removing sysctl.o(i.SysCtlVoltageEventClear), (16 bytes).
    Removing sysctl.o(i.SysCtlVoltageEventConfig), (12 bytes).
    Removing sysctl.o(i.SysCtlVoltageEventStatus), (12 bytes).
    Removing timer.o(i.TimerADCEventGet), (4 bytes).
    Removing timer.o(i.TimerADCEventSet), (4 bytes).
    Removing timer.o(i.TimerClockSourceGet), (6 bytes).
    Removing timer.o(i.TimerClockSourceSet), (6 bytes).
    Removing timer.o(i.TimerControlEvent), (18 bytes).
    Removing timer.o(i.TimerControlLevel), (22 bytes).
    Removing timer.o(i.TimerControlStall), (22 bytes).
    Removing timer.o(i.TimerControlTrigger), (80 bytes).
    Removing timer.o(i.TimerControlWaitOnTrigger), (48 bytes).
    Removing timer.o(i.TimerDMAEventGet), (4 bytes).
    Removing timer.o(i.TimerDMAEventSet), (4 bytes).
    Removing timer.o(i.TimerDisable), (16 bytes).
    Removing timer.o(i.TimerIntDisable), (10 bytes).
    Removing timer.o(i.TimerIntUnregister), (104 bytes).
    Removing timer.o(i.TimerLoadGet), (10 bytes).
    Removing timer.o(i.TimerLoadGet64), (14 bytes).
    Removing timer.o(i.TimerLoadSet64), (6 bytes).
    Removing timer.o(i.TimerMatchGet), (10 bytes).
    Removing timer.o(i.TimerMatchGet64), (14 bytes).
    Removing timer.o(i.TimerMatchSet), (18 bytes).
    Removing timer.o(i.TimerMatchSet64), (6 bytes).
    Removing timer.o(i.TimerPrescaleGet), (10 bytes).
    Removing timer.o(i.TimerPrescaleMatchGet), (10 bytes).
    Removing timer.o(i.TimerPrescaleMatchSet), (18 bytes).
    Removing timer.o(i.TimerPrescaleSet), (18 bytes).
    Removing timer.o(i.TimerRTCDisable), (10 bytes).
    Removing timer.o(i.TimerRTCEnable), (10 bytes).
    Removing timer.o(i.TimerSynchronize), (4 bytes).
    Removing timer.o(i.TimerUpdateMode), (42 bytes).
    Removing timer.o(i.TimerValueGet), (10 bytes).
    Removing timer.o(i.TimerValueGet64), (14 bytes).
    Removing uart.o(i.UART9BitAddrSend), (38 bytes).
    Removing uart.o(i.UART9BitAddrSet), (10 bytes).
    Removing uart.o(i.UART9BitDisable), (14 bytes).
    Removing uart.o(i.UART9BitEnable), (14 bytes).
    Removing uart.o(i.UARTBreakCtl), (18 bytes).
    Removing uart.o(i.UARTBusy), (8 bytes).
    Removing uart.o(i.UARTCharGetNonBlocking), (16 bytes).
    Removing uart.o(i.UARTCharPutNonBlocking), (16 bytes).
    Removing uart.o(i.UARTCharsAvail), (10 bytes).
    Removing uart.o(i.UARTClockSourceGet), (6 bytes).
    Removing uart.o(i.UARTClockSourceSet), (6 bytes).
    Removing uart.o(i.UARTConfigGetExpClk), (46 bytes).
    Removing uart.o(i.UARTDMADisable), (10 bytes).
    Removing uart.o(i.UARTDMAEnable), (8 bytes).
    Removing uart.o(i.UARTDisable), (30 bytes).
    Removing uart.o(i.UARTDisableSIR), (10 bytes).
    Removing uart.o(i.UARTEnable), (20 bytes).
    Removing uart.o(i.UARTEnableSIR), (18 bytes).
    Removing uart.o(i.UARTFIFODisable), (10 bytes).
    Removing uart.o(i.UARTFIFOEnable), (10 bytes).
    Removing uart.o(i.UARTFIFOLevelGet), (16 bytes).
    Removing uart.o(i.UARTFIFOLevelSet), (6 bytes).
    Removing uart.o(i.UARTFlowControlGet), (8 bytes).
    Removing uart.o(i.UARTFlowControlSet), (12 bytes).
    Removing uart.o(i.UARTIntClear), (4 bytes).
    Removing uart.o(i.UARTIntDisable), (10 bytes).
    Removing uart.o(i.UARTIntEnable), (8 bytes).
    Removing uart.o(i.UARTIntRegister), (88 bytes).
    Removing uart.o(i.UARTIntStatus), (10 bytes).
    Removing uart.o(i.UARTIntUnregister), (88 bytes).
    Removing uart.o(i.UARTLoopbackEnable), (10 bytes).
    Removing uart.o(i.UARTModemControlClear), (14 bytes).
    Removing uart.o(i.UARTModemControlGet), (8 bytes).
    Removing uart.o(i.UARTModemControlSet), (12 bytes).
    Removing uart.o(i.UARTModemStatusGet), (10 bytes).
    Removing uart.o(i.UARTParityModeGet), (8 bytes).
    Removing uart.o(i.UARTParityModeSet), (12 bytes).
    Removing uart.o(i.UARTRxErrorClear), (6 bytes).
    Removing uart.o(i.UARTRxErrorGet), (8 bytes).
    Removing uart.o(i.UARTSmartCardDisable), (10 bytes).
    Removing uart.o(i.UARTSmartCardEnable), (22 bytes).
    Removing uart.o(i.UARTSpaceAvail), (10 bytes).
    Removing uart.o(i.UARTTxIntModeGet), (8 bytes).
    Removing uart.o(i.UARTTxIntModeSet), (12 bytes).
    Removing uart.o(.constdata), (128 bytes).
    Removing epi.o(i.EPIWorkaroundWordWrite), (6 bytes).
    Removing epi.o(i.EPIWorkaroundWordRead), (6 bytes).
    Removing epi.o(i.EPIWorkaroundHWordWrite), (6 bytes).
    Removing epi.o(i.EPIWorkaroundHWordRead), (6 bytes).
    Removing epi.o(i.EPIWorkaroundByteWrite), (6 bytes).
    Removing epi.o(i.EPIWorkaroundByteRead), (6 bytes).

450 unused section(s) (total 33007 bytes) removed from the image.

==============================================================================

Image Symbol Table

    Local Symbols

    Symbol Name                              Value     Ov Type        Size  Object(Section)

    RESET                                    0x00000000   Section      648  startup_rvmdk.o(RESET)
    ../clib/../cmprslib/lz77c.c              0x00000000   Number         0  __dclz77c.o ABSOLUTE
    ../clib/microlib/division.c              0x00000000   Number         0  uldiv.o ABSOLUTE
    ../clib/microlib/division.c              0x00000000   Number         0  uidiv.o ABSOLUTE
    ../clib/microlib/init/entry.s            0x00000000   Number         0  entry7b.o ABSOLUTE
    ../clib/microlib/init/entry.s            0x00000000   Number         0  entry11b.o ABSOLUTE
    ../clib/microlib/init/entry.s            0x00000000   Number         0  entry11a.o ABSOLUTE
    ../clib/microlib/init/entry.s            0x00000000   Number         0  entry10b.o ABSOLUTE
    ../clib/microlib/init/entry.s            0x00000000   Number         0  entry2.o ABSOLUTE
    ../clib/microlib/init/entry.s            0x00000000   Number         0  entry10a.o ABSOLUTE
    ../clib/microlib/init/entry.s            0x00000000   Number         0  entry9b.o ABSOLUTE
    ../clib/microlib/init/entry.s            0x00000000   Number         0  entry9a.o ABSOLUTE
    ../clib/microlib/init/entry.s            0x00000000   Number         0  entry8b.o ABSOLUTE
    ../clib/microlib/init/entry.s            0x00000000   Number         0  entry8a.o ABSOLUTE
    ../clib/microlib/init/entry.s            0x00000000   Number         0  entry.o ABSOLUTE
    ../clib/microlib/init/entry.s            0x00000000   Number         0  entry7a.o ABSOLUTE
    ../clib/microlib/init/entry.s            0x00000000   Number         0  entry5.o ABSOLUTE
    ../clib/microlib/longlong.c              0x00000000   Number         0  llshl.o ABSOLUTE
    ../clib/microlib/longlong.c              0x00000000   Number         0  llushr.o ABSOLUTE
    ../clib/microlib/longlong.c              0x00000000   Number         0  llsshr.o ABSOLUTE
    ../clib/microlib/malloc/malloc.c         0x00000000   Number         0  mallocra.o ABSOLUTE
    ../clib/microlib/malloc/malloc.c         0x00000000   Number         0  mallocr.o ABSOLUTE
    ../clib/microlib/malloc/malloc.c         0x00000000   Number         0  malloca.o ABSOLUTE
    ../clib/microlib/malloc/malloc.c         0x00000000   Number         0  malloc.o ABSOLUTE
    ../clib/microlib/malloc/mvars.c          0x00000000   Number         0  mvars.o ABSOLUTE
    ../clib/microlib/printf/printf.c         0x00000000   Number         0  printf8.o ABSOLUTE
    ../clib/microlib/printf/printf.c         0x00000000   Number         0  printf2.o ABSOLUTE
    ../clib/microlib/printf/printf.c         0x00000000   Number         0  printf7.o ABSOLUTE
    ../clib/microlib/printf/printf.c         0x00000000   Number         0  printfb.o ABSOLUTE
    ../clib/microlib/printf/printf.c         0x00000000   Number         0  printf0.o ABSOLUTE
    ../clib/microlib/printf/printf.c         0x00000000   Number         0  printf6.o ABSOLUTE
    ../clib/microlib/printf/printf.c         0x00000000   Number         0  printf5.o ABSOLUTE
    ../clib/microlib/printf/printf.c         0x00000000   Number         0  printf1.o ABSOLUTE
    ../clib/microlib/printf/printf.c         0x00000000   Number         0  printf3.o ABSOLUTE
    ../clib/microlib/printf/printf.c         0x00000000   Number         0  printf4.o ABSOLUTE
    ../clib/microlib/printf/printf.c         0x00000000   Number         0  printfa.o ABSOLUTE
    ../clib/microlib/printf/stubs.s          0x00000000   Number         0  stubs.o ABSOLUTE
    ../clib/microlib/stdio/fputc.c           0x00000000   Number         0  fputc.o ABSOLUTE
    ../clib/microlib/stdio/semi.s            0x00000000   Number         0  semi.o ABSOLUTE
    ../clib/microlib/stdio/streams.c         0x00000000   Number         0  stdout.o ABSOLUTE
    ../clib/microlib/string/memcpy.c         0x00000000   Number         0  memcpyb.o ABSOLUTE
    ../clib/microlib/string/memcpy.c         0x00000000   Number         0  memcpya.o ABSOLUTE
    ../clib/microlib/string/memset.c         0x00000000   Number         0  memseta.o ABSOLUTE
    ../clib/microlib/string/strcat.c         0x00000000   Number         0  strcat.o ABSOLUTE
    ../clib/microlib/string/strcmp.c         0x00000000   Number         0  strcmp.o ABSOLUTE
    ../clib/microlib/string/strcpy.c         0x00000000   Number         0  strcpy.o ABSOLUTE
    ../clib/microlib/string/strlen.c         0x00000000   Number         0  strlen.o ABSOLUTE
    ../clib/microlib/string/strncpy.c        0x00000000   Number         0  strncpy.o ABSOLUTE
    ../clib/microlib/stubs.s                 0x00000000   Number         0  iusefp.o ABSOLUTE
    ../clib/microlib/stubs.s                 0x00000000   Number         0  iusesemip.o ABSOLUTE
    ../fplib/microlib/d2f.c                  0x00000000   Number         0  d2f.o ABSOLUTE
    ../fplib/microlib/f2d.c                  0x00000000   Number         0  f2d.o ABSOLUTE
    ../fplib/microlib/fpadd.c                0x00000000   Number         0  dadd.o ABSOLUTE
    ../fplib/microlib/fpdiv.c                0x00000000   Number         0  ddiv.o ABSOLUTE
    ../fplib/microlib/fpepilogue.c           0x00000000   Number         0  fepilogue.o ABSOLUTE
    ../fplib/microlib/fpepilogue.c           0x00000000   Number         0  depilogue.o ABSOLUTE
    ../fplib/microlib/fpfix.c                0x00000000   Number         0  dfixul.o ABSOLUTE
    ../fplib/microlib/fpfix.c                0x00000000   Number         0  dfixi.o ABSOLUTE
    ../fplib/microlib/fpfix.c                0x00000000   Number         0  dfixui.o ABSOLUTE
    ../fplib/microlib/fpflt.c                0x00000000   Number         0  dfltui.o ABSOLUTE
    ../fplib/microlib/fpmul.c                0x00000000   Number         0  dmul.o ABSOLUTE
    ..\..\..\..\Documents\Ti\MP3 Player\TivaWare_C_Series\third_party\fatfs\src\ff.c 0x00000000   Number         0  ff.o ABSOLUTE
    ..\..\..\..\Documents\Ti\MP3 Player\TivaWare_C_Series\utils\cmdline.c 0x00000000   Number         0  cmdline.o ABSOLUTE
    ..\Application\KalmanFilter.c            0x00000000   Number         0  kalmanfilter.o ABSOLUTE
    ..\Application\application.c             0x00000000   Number         0  application.o ABSOLUTE
    ..\Application\bmp.c                     0x00000000   Number         0  bmp.o ABSOLUTE
    ..\Application\control.c                 0x00000000   Number         0  control.o ABSOLUTE
    ..\Application\main.c                    0x00000000   Number         0  main.o ABSOLUTE
    ..\Bsp\EPIinit.c                         0x00000000   Number         0  epiinit.o ABSOLUTE
    ..\Bsp\OLED_I2C.c                        0x00000000   Number         0  oled_i2c.o ABSOLUTE
    ..\Bsp\PCA9557.c                         0x00000000   Number         0  pca9557.o ABSOLUTE
    ..\Bsp\accelerator.c                     0x00000000   Number         0  accelerator.o ABSOLUTE
    ..\Bsp\adc.c                             0x00000000   Number         0  adc.o ABSOLUTE
    ..\Bsp\buzzer.c                          0x00000000   Number         0  buzzer.o ABSOLUTE
    ..\Bsp\fatfs_port_tm4c1294.c             0x00000000   Number         0  fatfs_port_tm4c1294.o ABSOLUTE
    ..\Bsp\i2c.c                             0x00000000   Number         0  i2c.o ABSOLUTE
    ..\Bsp\infrared.c                        0x00000000   Number         0  infrared.o ABSOLUTE
    ..\Bsp\led.c                             0x00000000   Number         0  led.o ABSOLUTE
    ..\Bsp\pn532.c                           0x00000000   Number         0  pn532.o ABSOLUTE
    ..\Bsp\sd.c                              0x00000000   Number         0  sd.o ABSOLUTE
    ..\Bsp\startup_rvmdk.S                   0x00000000   Number         0  startup_rvmdk.o ABSOLUTE
    ..\Bsp\tft.c                             0x00000000   Number         0  tft.o ABSOLUTE
    ..\Bsp\timer.c                           0x00000000   Number         0  timer.o ABSOLUTE
    ..\Bsp\touch.c                           0x00000000   Number         0  touch.o ABSOLUTE
    ..\Bsp\uartstdio.c                       0x00000000   Number         0  uartstdio.o ABSOLUTE
    ..\Bsp\usart.c                           0x00000000   Number         0  usart.o ABSOLUTE
    ..\FreeRTOS\croutine.c                   0x00000000   Number         0  croutine.o ABSOLUTE
    ..\FreeRTOS\event_groups.c               0x00000000   Number         0  event_groups.o ABSOLUTE
    ..\FreeRTOS\heap_2.c                     0x00000000   Number         0  heap_2.o ABSOLUTE
    ..\FreeRTOS\list.c                       0x00000000   Number         0  list.o ABSOLUTE
    ..\FreeRTOS\port.c                       0x00000000   Number         0  port.o ABSOLUTE
    ..\FreeRTOS\queue.c                      0x00000000   Number         0  queue.o ABSOLUTE
    ..\FreeRTOS\tasks.c                      0x00000000   Number         0  tasks.o ABSOLUTE
    ..\FreeRTOS\timers.c                     0x00000000   Number         0  timers.o ABSOLUTE
    ..\\FreeRTOS\\port.c                     0x00000000   Number         0  port.o ABSOLUTE
    adc.c                                    0x00000000   Number         0  adc.o ABSOLUTE
    cdrcmple.s                               0x00000000   Number         0  cdrcmple.o ABSOLUTE
    cpu.c                                    0x00000000   Number         0  cpu.o ABSOLUTE
    cpu.c                                    0x00000000   Number         0  cpu.o ABSOLUTE
    dc.s                                     0x00000000   Number         0  dc.o ABSOLUTE
    epi.c                                    0x00000000   Number         0  epi.o ABSOLUTE
    fpu.c                                    0x00000000   Number         0  fpu.o ABSOLUTE
    gpio.c                                   0x00000000   Number         0  gpio.o ABSOLUTE
    handlers.s                               0x00000000   Number         0  handlers.o ABSOLUTE
    i2c.c                                    0x00000000   Number         0  i2c.o ABSOLUTE
    init.s                                   0x00000000   Number         0  init.o ABSOLUTE
    interrupt.c                              0x00000000   Number         0  interrupt.o ABSOLUTE
    ssi.c                                    0x00000000   Number         0  ssi.o ABSOLUTE
    sysctl.c                                 0x00000000   Number         0  sysctl.o ABSOLUTE
    sysctl.c                                 0x00000000   Number         0  sysctl.o ABSOLUTE
    timer.c                                  0x00000000   Number         0  timer.o ABSOLUTE
    uart.c                                   0x00000000   Number         0  uart.o ABSOLUTE
    $v0                                      0x0000026c   Number         0  startup_rvmdk.o(RESET)
    NmiSR                                    0x00000281   Thumb Code     0  startup_rvmdk.o(RESET)
    FaultISR                                 0x00000283   Thumb Code     0  startup_rvmdk.o(RESET)
    IntDefaultHandler                        0x00000287   Thumb Code     0  startup_rvmdk.o(RESET)
    .ARM.Collect$$$$00000000                 0x00000288   Section        0  entry.o(.ARM.Collect$$$$00000000)
    .ARM.Collect$$$$00000001                 0x00000288   Section        4  entry2.o(.ARM.Collect$$$$00000001)
    .ARM.Collect$$$$00000004                 0x0000028c   Section        4  entry5.o(.ARM.Collect$$$$00000004)
    .ARM.Collect$$$$00000008                 0x00000290   Section        0  entry7b.o(.ARM.Collect$$$$00000008)
    .ARM.Collect$$$$0000000A                 0x00000290   Section        0  entry8b.o(.ARM.Collect$$$$0000000A)
    .ARM.Collect$$$$0000000B                 0x00000290   Section        8  entry9a.o(.ARM.Collect$$$$0000000B)
    .ARM.Collect$$$$0000000D                 0x00000298   Section        0  entry10a.o(.ARM.Collect$$$$0000000D)
    .ARM.Collect$$$$0000000F                 0x00000298   Section        0  entry11a.o(.ARM.Collect$$$$0000000F)
    .ARM.Collect$$$$00002712                 0x00000298   Section        4  entry2.o(.ARM.Collect$$$$00002712)
    __lit__00000000                          0x00000298   Data           4  entry2.o(.ARM.Collect$$$$00002712)
    .emb_text                                0x0000029c   Section      182  port.o(.emb_text)
    $v0                                      0x0000029c   Number         0  port.o(.emb_text)
    .emb_text                                0x00000354   Section        6  sysctl.o(.emb_text)
    $v0                                      0x00000354   Number         0  sysctl.o(.emb_text)
    .emb_text                                0x0000035c   Section       38  cpu.o(.emb_text)
    $v0                                      0x0000035c   Number         0  cpu.o(.emb_text)
    .text                                    0x00000382   Section        0  memcpya.o(.text)
    .text                                    0x000003a6   Section        0  memseta.o(.text)
    .text                                    0x000003ca   Section        0  dadd.o(.text)
    .text                                    0x00000518   Section        0  dmul.o(.text)
    .text                                    0x000005fc   Section        0  ddiv.o(.text)
    .text                                    0x000006da   Section        0  dfltui.o(.text)
    .text                                    0x000006f4   Section        0  dfixi.o(.text)
    .text                                    0x00000732   Section        0  dfixui.o(.text)
    .text                                    0x00000764   Section        0  f2d.o(.text)
    .text                                    0x0000078a   Section        0  d2f.o(.text)
    .text                                    0x000007c2   Section        0  uidiv.o(.text)
    .text                                    0x000007ee   Section        0  uldiv.o(.text)
    .text                                    0x00000850   Section        0  llshl.o(.text)
    .text                                    0x0000086e   Section        0  llushr.o(.text)
    .text                                    0x0000088e   Section        0  llsshr.o(.text)
    .text                                    0x000008b2   Section        0  fepilogue.o(.text)
    .text                                    0x000008b2   Section        0  iusefp.o(.text)
    .text                                    0x00000920   Section        0  depilogue.o(.text)
    .text                                    0x000009da   Section        0  dfixul.o(.text)
    .text                                    0x00000a0c   Section       48  cdrcmple.o(.text)
    .text                                    0x00000a3c   Section       36  init.o(.text)
    .text                                    0x00000a60   Section        0  __dclz77c.o(.text)
    i.ACCELERATOR_Init                       0x00000abe   Section        0  accelerator.o(i.ACCELERATOR_Init)
    i.ACCELERATOR_Read                       0x00000b3c   Section        0  accelerator.o(i.ACCELERATOR_Read)
    i.ADC0_Init                              0x00000c68   Section        0  adc.o(i.ADC0_Init)
    i.ADC0_Read                              0x00000cf4   Section        0  adc.o(i.ADC0_Read)
    i.ADCIntClear                            0x00000d64   Section        0  adc.o(i.ADCIntClear)
    i.ADCIntStatus                           0x00000d6e   Section        0  adc.o(i.ADCIntStatus)
    i.ADCProcessorTrigger                    0x00000da2   Section        0  adc.o(i.ADCProcessorTrigger)
    i.ADCRead                                0x00000dbc   Section        0  application.o(i.ADCRead)
    ADCRead                                  0x00000dbd   Thumb Code   404  application.o(i.ADCRead)
    i.ADCSequenceConfigure                   0x00000f94   Section        0  adc.o(i.ADCSequenceConfigure)
    i.ADCSequenceDataGet                     0x00000ff4   Section        0  adc.o(i.ADCSequenceDataGet)
    i.ADCSequenceEnable                      0x00001018   Section        0  adc.o(i.ADCSequenceEnable)
    i.ADCSequenceStepConfigure               0x00001026   Section        0  adc.o(i.ADCSequenceStepConfigure)
    i.ADD_VOLUME                             0x000010c0   Section        0  control.o(i.ADD_VOLUME)
    i.BEEZZERBeep                            0x000010d8   Section        0  application.o(i.BEEZZERBeep)
    BEEZZERBeep                              0x000010d9   Thumb Code    30  application.o(i.BEEZZERBeep)
    i.BMPDisplay                             0x000010fc   Section        0  application.o(i.BMPDisplay)
    BMPDisplay                               0x000010fd   Thumb Code    54  application.o(i.BMPDisplay)
    i.BSP_Init                               0x0000113c   Section        0  application.o(i.BSP_Init)
    i.BUZZER_Beep                            0x0000124c   Section        0  buzzer.o(i.BUZZER_Beep)
    i.BUZZER_Init                            0x0000129c   Section        0  buzzer.o(i.BUZZER_Init)
    i.Button_Reconize                        0x000012c4   Section        0  touch.o(i.Button_Reconize)
    i.Command_Control                        0x00001394   Section        0  application.o(i.Command_Control)
    Command_Control                          0x00001395   Thumb Code   102  application.o(i.Command_Control)
    i.DESELECT                               0x00001404   Section        0  fatfs_port_tm4c1294.o(i.DESELECT)
    DESELECT                                 0x00001405   Thumb Code    20  fatfs_port_tm4c1294.o(i.DESELECT)
    i.DIGITALTube                            0x0000141c   Section        0  application.o(i.DIGITALTube)
    DIGITALTube                              0x0000141d   Thumb Code    68  application.o(i.DIGITALTube)
    i.Delay5us                               0x00001460   Section        0  i2c.o(i.Delay5us)
    i.EPIAddressMapSet                       0x00001478   Section        0  epi.o(i.EPIAddressMapSet)
    i.EPIConfigHB16Set                       0x0000147c   Section        0  epi.o(i.EPIConfigHB16Set)
    i.EPIGPIOinit                            0x0000149c   Section        0  epiinit.o(i.EPIGPIOinit)
    i.EPIModeSet                             0x00001594   Section        0  epi.o(i.EPIModeSet)
    i.FPUEnable                              0x00001598   Section        0  fpu.o(i.FPUEnable)
    i.FPULazyStackingEnable                  0x000015a8   Section        0  fpu.o(i.FPULazyStackingEnable)
    i.FreeRTOS_Init                          0x000015b8   Section        0  application.o(i.FreeRTOS_Init)
    i.GETPoint                               0x00001780   Section        0  application.o(i.GETPoint)
    GETPoint                                 0x00001781   Thumb Code    14  application.o(i.GETPoint)
    i.GPIODirModeSet                         0x0000178e   Section        0  gpio.o(i.GPIODirModeSet)
    i.GPIOIntClear                           0x000017b6   Section        0  gpio.o(i.GPIOIntClear)
    i.GPIOIntEnable                          0x000017bc   Section        0  gpio.o(i.GPIOIntEnable)
    i.GPIOIntRegister                        0x000017c8   Section        0  gpio.o(i.GPIOIntRegister)
    i.GPIOIntTypeSet                         0x000017e2   Section        0  gpio.o(i.GPIOIntTypeSet)
    i.GPION_IRQ                              0x00001834   Section        0  infrared.o(i.GPION_IRQ)
    i.GPIOPadConfigSet                       0x000018c4   Section        0  gpio.o(i.GPIOPadConfigSet)
    i.GPIOPinConfigure                       0x000019fc   Section        0  gpio.o(i.GPIOPinConfigure)
    i.GPIOPinRead                            0x00001a40   Section        0  gpio.o(i.GPIOPinRead)
    i.GPIOPinTypeADC                         0x00001a46   Section        0  gpio.o(i.GPIOPinTypeADC)
    i.GPIOPinTypeEPI                         0x00001a62   Section        0  gpio.o(i.GPIOPinTypeEPI)
    i.GPIOPinTypeGPIOInput                   0x00001a7e   Section        0  gpio.o(i.GPIOPinTypeGPIOInput)
    i.GPIOPinTypeGPIOOutput                  0x00001a9a   Section        0  gpio.o(i.GPIOPinTypeGPIOOutput)
    i.GPIOPinTypeI2C                         0x00001ab6   Section        0  gpio.o(i.GPIOPinTypeI2C)
    i.GPIOPinTypeI2CSCL                      0x00001ad2   Section        0  gpio.o(i.GPIOPinTypeI2CSCL)
    i.GPIOPinTypeSSI                         0x00001aee   Section        0  gpio.o(i.GPIOPinTypeSSI)
    i.GPIOPinTypeUART                        0x00001b0a   Section        0  gpio.o(i.GPIOPinTypeUART)
    i.GPIOPinWrite                           0x00001b26   Section        0  gpio.o(i.GPIOPinWrite)
    i.Get_Point                              0x00001b2c   Section        0  touch.o(i.Get_Point)
    i.GravityBall                            0x00001c80   Section        0  application.o(i.GravityBall)
    GravityBall                              0x00001c81   Thumb Code   200  application.o(i.GravityBall)
    i.I2C0DeviceInit                         0x00001d4c   Section        0  pca9557.o(i.I2C0DeviceInit)
    i.I2C0GPIOBEnable                        0x00001d78   Section        0  i2c.o(i.I2C0GPIOBEnable)
    i.I2C0MasterInit                         0x00001dbc   Section        0  pca9557.o(i.I2C0MasterInit)
    i.I2C0PinConfig                          0x00001de4   Section        0  pca9557.o(i.I2C0PinConfig)
    i.I2C0Send                               0x00001e24   Section        0  pca9557.o(i.I2C0Send)
    i.I2C0TubeHighSet                        0x00001f10   Section        0  pca9557.o(i.I2C0TubeHighSet)
    i.I2C0TubeLowSet                         0x00001f30   Section        0  pca9557.o(i.I2C0TubeLowSet)
    i.I2C0TubeSelSet                         0x00001f50   Section        0  pca9557.o(i.I2C0TubeSelSet)
    i.I2C3MasterInit                         0x00001f70   Section        0  oled_i2c.o(i.I2C3MasterInit)
    i.I2C3PinConfig                          0x00001f98   Section        0  oled_i2c.o(i.I2C3PinConfig)
    i.I2C3Send                               0x00001fd8   Section        0  oled_i2c.o(i.I2C3Send)
    i.I2CMasterBusy                          0x000020c4   Section        0  i2c.o(i.I2CMasterBusy)
    i.I2CMasterControl                       0x000020d0   Section        0  i2c.o(i.I2CMasterControl)
    i.I2CMasterDataPut                       0x000020d4   Section        0  i2c.o(i.I2CMasterDataPut)
    i.I2CMasterEnable                        0x000020d8   Section        0  i2c.o(i.I2CMasterEnable)
    i.I2CMasterErr                           0x000020e2   Section        0  i2c.o(i.I2CMasterErr)
    i.I2CMasterInitExpClk                    0x000020fc   Section        0  i2c.o(i.I2CMasterInitExpClk)
    i.I2CMasterSlaveAddrSet                  0x00002150   Section        0  i2c.o(i.I2CMasterSlaveAddrSet)
    i.I2CRead                                0x00002158   Section        0  accelerator.o(i.I2CRead)
    i.I2CSend                                0x0000216c   Section        0  accelerator.o(i.I2CSend)
    i.I2CSlaveEnable                         0x000021ac   Section        0  i2c.o(i.I2CSlaveEnable)
    i.I2C_GetACK                             0x000021bc   Section        0  i2c.o(i.I2C_GetACK)
    i.I2C_RxByte                             0x00002204   Section        0  i2c.o(i.I2C_RxByte)
    i.I2C_START                              0x00002260   Section        0  i2c.o(i.I2C_START)
    i.I2C_STOP                               0x000022a0   Section        0  i2c.o(i.I2C_STOP)
    i.I2C_SetNAk                             0x000022e8   Section        0  i2c.o(i.I2C_SetNAk)
    i.I2C_Set_scl_high                       0x00002308   Section        0  i2c.o(i.I2C_Set_scl_high)
    i.I2C_Set_scl_low                        0x00002324   Section        0  i2c.o(i.I2C_Set_scl_low)
    i.I2C_Set_sda_high                       0x00002340   Section        0  i2c.o(i.I2C_Set_sda_high)
    i.I2C_Set_sda_low                        0x0000235c   Section        0  i2c.o(i.I2C_Set_sda_low)
    i.I2C_TxByte                             0x00002378   Section        0  i2c.o(i.I2C_TxByte)
    i.INFRARED                               0x000023c4   Section        0  application.o(i.INFRARED)
    INFRARED                                 0x000023c5   Thumb Code   120  application.o(i.INFRARED)
    i.INFRARED_Init                          0x00002448   Section        0  infrared.o(i.INFRARED_Init)
    i.InitGPIOLCDInterface                   0x000024a4   Section        0  tft.o(i.InitGPIOLCDInterface)
    i.IntEnable                              0x00002588   Section        0  interrupt.o(i.IntEnable)
    i.IntMasterEnable                        0x000025ec   Section        0  interrupt.o(i.IntMasterEnable)
    i.IntPrioritySet                         0x000025fc   Section        0  interrupt.o(i.IntPrioritySet)
    i.IntRegister                            0x00002624   Section        0  interrupt.o(i.IntRegister)
    i.Ir_Server                              0x00002658   Section        0  infrared.o(i.Ir_Server)
    i.LEDTask                                0x000026c0   Section        0  application.o(i.LEDTask)
    LEDTask                                  0x000026c1   Thumb Code    38  application.o(i.LEDTask)
    i.LED_BLINK                              0x000026e8   Section        0  application.o(i.LED_BLINK)
    i.LED_Close                              0x00002708   Section        0  led.o(i.LED_Close)
    i.LED_Init                               0x0000278c   Section        0  led.o(i.LED_Init)
    i.LED_Open                               0x000027d8   Section        0  led.o(i.LED_Open)
    i.NEXT                                   0x0000285c   Section        0  control.o(i.NEXT)
    i.OLED_CLS                               0x00002874   Section        0  oled_i2c.o(i.OLED_CLS)
    i.OLED_Fill                              0x0000287e   Section        0  oled_i2c.o(i.OLED_Fill)
    i.OLED_Init                              0x000028b8   Section        0  oled_i2c.o(i.OLED_Init)
    i.OLED_SetPos                            0x0000297c   Section        0  oled_i2c.o(i.OLED_SetPos)
    i.OLED_ShowStr                           0x000029a4   Section        0  oled_i2c.o(i.OLED_ShowStr)
    i.PCA9557_Init                           0x00002a90   Section        0  pca9557.o(i.PCA9557_Init)
    i.PLAYER_Init                            0x00002aac   Section        0  control.o(i.PLAYER_Init)
    i.PLAY_OR_PAUSE                          0x00002ac4   Section        0  control.o(i.PLAY_OR_PAUSE)
    i.PN532_Active                           0x00002adc   Section        0  pn532.o(i.PN532_Active)
    i.PN532_Clearbuffer                      0x00002b30   Section        0  pn532.o(i.PN532_Clearbuffer)
    i.PN532_Init                             0x00002b48   Section        0  pn532.o(i.PN532_Init)
    i.PN532_Readuid                          0x00002b50   Section        0  pn532.o(i.PN532_Readuid)
    i.PREVIOUS                               0x00002b70   Section        0  control.o(i.PREVIOUS)
    i.RGB888ToBGR565                         0x00002b88   Section        0  bmp.o(i.RGB888ToBGR565)
    i.SDTicket                               0x00002ba2   Section        0  application.o(i.SDTicket)
    SDTicket                                 0x00002ba3   Thumb Code    10  application.o(i.SDTicket)
    i.SELECT                                 0x00002bac   Section        0  fatfs_port_tm4c1294.o(i.SELECT)
    SELECT                                   0x00002bad   Thumb Code    20  fatfs_port_tm4c1294.o(i.SELECT)
    i.SET_VOLUME                             0x00002bc4   Section        0  control.o(i.SET_VOLUME)
    i.SINGLE_read                            0x00002bf4   Section        0  i2c.o(i.SINGLE_read)
    i.SSIConfigSetExpClk                     0x00002c5e   Section        0  ssi.o(i.SSIConfigSetExpClk)
    i.SSIDataGet                             0x00002c98   Section        0  ssi.o(i.SSIDataGet)
    i.SSIDataGetNonBlocking                  0x00002ca6   Section        0  ssi.o(i.SSIDataGetNonBlocking)
    i.SSIDataPut                             0x00002cba   Section        0  ssi.o(i.SSIDataPut)
    i.SSIEnable                              0x00002cc6   Section        0  ssi.o(i.SSIEnable)
    i.SSIinit                                0x00002cd0   Section        0  touch.o(i.SSIinit)
    i.SUB_VOLUME                             0x00002d48   Section        0  control.o(i.SUB_VOLUME)
    i.Show_BMP                               0x00002d60   Section        0  bmp.o(i.Show_BMP)
    i.SysCtlClockFreqSet                     0x00002e94   Section        0  sysctl.o(i.SysCtlClockFreqSet)
    i.SysCtlGPIOAHBEnable                    0x00003180   Section        0  sysctl.o(i.SysCtlGPIOAHBEnable)
    i.SysCtlPeripheralEnable                 0x00003198   Section        0  sysctl.o(i.SysCtlPeripheralEnable)
    i.TFT_CLEAR                              0x000031c0   Section        0  tft.o(i.TFT_CLEAR)
    i.TFT_DrawCircle                         0x000031f8   Section        0  tft.o(i.TFT_DrawCircle)
    i.TFT_DrawLine                           0x00003282   Section        0  tft.o(i.TFT_DrawLine)
    i.TFT_DrawPoint                          0x00003410   Section        0  tft.o(i.TFT_DrawPoint)
    i.TFT_DrawRectangle                      0x00003434   Section        0  tft.o(i.TFT_DrawRectangle)
    i.TFT_FillBlock                          0x0000349c   Section        0  tft.o(i.TFT_FillBlock)
    i.TFT_Init                               0x000034e4   Section        0  tft.o(i.TFT_Init)
    i.TFT_SetPos                             0x00003bbc   Section        0  tft.o(i.TFT_SetPos)
    i.TFT_ShowByte                           0x00003c4c   Section        0  tft.o(i.TFT_ShowByte)
    i.TFT_ShowChar                           0x00003c78   Section        0  tft.o(i.TFT_ShowChar)
    i.TFT_ShowName                           0x00003cf0   Section        0  tft.o(i.TFT_ShowName)
    i.TFT_ShowString                         0x00003d54   Section        0  tft.o(i.TFT_ShowString)
    i.TFT_ShowWheel                          0x00003d9a   Section        0  tft.o(i.TFT_ShowWheel)
    i.TOUCH_Init                             0x00003f20   Section        0  touch.o(i.TOUCH_Init)
    i.TOUCH_PointAdjust                      0x00003f54   Section        0  touch.o(i.TOUCH_PointAdjust)
    i.Timer0BIntHandler                      0x00003fbc   Section        0  timer.o(i.Timer0BIntHandler)
    i.TimerConfigure                         0x00003fec   Section        0  timer.o(i.TimerConfigure)
    i.TimerEnable                            0x0000404c   Section        0  timer.o(i.TimerEnable)
    i.TimerIntClear                          0x0000405a   Section        0  timer.o(i.TimerIntClear)
    i.TimerIntEnable                         0x0000405e   Section        0  timer.o(i.TimerIntEnable)
    i.TimerIntInitial                        0x00004068   Section        0  timer.o(i.TimerIntInitial)
    i.TimerIntRegister                       0x000040cc   Section        0  timer.o(i.TimerIntRegister)
    i.TimerIntStatus                         0x00004134   Section        0  timer.o(i.TimerIntStatus)
    i.TimerLoadSet                           0x0000413e   Section        0  timer.o(i.TimerLoadSet)
    i.UARTCharGet                            0x00004150   Section        0  uart.o(i.UARTCharGet)
    i.UARTCharPut                            0x0000415c   Section        0  uart.o(i.UARTCharPut)
    i.UARTConfigSetExpClk                    0x00004168   Section        0  uart.o(i.UARTConfigSetExpClk)
    i.UARTReceiveData                        0x000041d6   Section        0  usart.o(i.UARTReceiveData)
    i.UARTWriteCmd                           0x000041fc   Section        0  usart.o(i.UARTWriteCmd)
    i.USART0_Init                            0x0000421c   Section        0  usart.o(i.USART0_Init)
    i.USART6_Init                            0x00004264   Section        0  usart.o(i.USART6_Init)
    i.WriteCmd                               0x000042b4   Section        0  oled_i2c.o(i.WriteCmd)
    i.WriteCommandGPIO                       0x000042cc   Section        0  tft.o(i.WriteCommandGPIO)
    WriteCommandGPIO                         0x000042cd   Thumb Code    52  tft.o(i.WriteCommandGPIO)
    i.WriteDat                               0x00004308   Section        0  oled_i2c.o(i.WriteDat)
    i.WriteDataGPIO                          0x00004328   Section        0  tft.o(i.WriteDataGPIO)
    WriteDataGPIO                            0x00004329   Thumb Code    36  tft.o(i.WriteDataGPIO)
    i._GPIOIntNumberGet                      0x00004354   Section        0  gpio.o(i._GPIOIntNumberGet)
    _GPIOIntNumberGet                        0x00004355   Thumb Code    62  gpio.o(i._GPIOIntNumberGet)
    i._NOP                                   0x000043a4   Section        0  i2c.o(i._NOP)
    i.__0sprintf                             0x000043b0   Section        0  printfa.o(i.__0sprintf)
    i.__scatterload_copy                     0x000043d8   Section       14  handlers.o(i.__scatterload_copy)
    i.__scatterload_null                     0x000043e6   Section        2  handlers.o(i.__scatterload_null)
    i.__scatterload_zeroinit                 0x000043e8   Section       14  handlers.o(i.__scatterload_zeroinit)
    i._fp_digits                             0x000043f8   Section        0  printfa.o(i._fp_digits)
    _fp_digits                               0x000043f9   Thumb Code   366  printfa.o(i._fp_digits)
    i._printf_core                           0x0000457c   Section        0  printfa.o(i._printf_core)
    _printf_core                             0x0000457d   Thumb Code  1744  printfa.o(i._printf_core)
    i._printf_post_padding                   0x00004c58   Section        0  printfa.o(i._printf_post_padding)
    _printf_post_padding                     0x00004c59   Thumb Code    36  printfa.o(i._printf_post_padding)
    i._printf_pre_padding                    0x00004c7c   Section        0  printfa.o(i._printf_pre_padding)
    _printf_pre_padding                      0x00004c7d   Thumb Code    46  printfa.o(i._printf_pre_padding)
    i._sputc                                 0x00004caa   Section        0  printfa.o(i._sputc)
    _sputc                                   0x00004cab   Thumb Code    10  printfa.o(i._sputc)
    i.check_fs                               0x00004cb4   Section        0  ff.o(i.check_fs)
    check_fs                                 0x00004cb5   Thumb Code   138  ff.o(i.check_fs)
    i.chk_chr                                0x00004d44   Section        0  ff.o(i.chk_chr)
    chk_chr                                  0x00004d45   Thumb Code    20  ff.o(i.chk_chr)
    i.chk_mounted                            0x00004d58   Section        0  ff.o(i.chk_mounted)
    chk_mounted                              0x00004d59   Thumb Code   908  ff.o(i.chk_mounted)
    i.chk_power                              0x000050f4   Section        0  fatfs_port_tm4c1294.o(i.chk_power)
    chk_power                                0x000050f5   Thumb Code     6  fatfs_port_tm4c1294.o(i.chk_power)
    i.clust2sect                             0x00005100   Section        0  ff.o(i.clust2sect)
    i.create_chain                           0x0000511a   Section        0  ff.o(i.create_chain)
    create_chain                             0x0000511b   Thumb Code   202  ff.o(i.create_chain)
    i.create_name                            0x000051e4   Section        0  ff.o(i.create_name)
    create_name                              0x000051e5   Thumb Code   336  ff.o(i.create_name)
    i.dir_alloc                              0x00005344   Section        0  ff.o(i.dir_alloc)
    dir_alloc                                0x00005345   Thumb Code    86  ff.o(i.dir_alloc)
    i.dir_find                               0x0000539a   Section        0  ff.o(i.dir_find)
    dir_find                                 0x0000539b   Thumb Code    92  ff.o(i.dir_find)
    i.dir_next                               0x000053f6   Section        0  ff.o(i.dir_next)
    dir_next                                 0x000053f7   Thumb Code   276  ff.o(i.dir_next)
    i.dir_register                           0x0000550a   Section        0  ff.o(i.dir_register)
    dir_register                             0x0000550b   Thumb Code    58  ff.o(i.dir_register)
    i.dir_sdi                                0x00005544   Section        0  ff.o(i.dir_sdi)
    dir_sdi                                  0x00005545   Thumb Code   156  ff.o(i.dir_sdi)
    i.disk_initialize                        0x000055e0   Section        0  fatfs_port_tm4c1294.o(i.disk_initialize)
    i.disk_ioctl                             0x0000574c   Section        0  fatfs_port_tm4c1294.o(i.disk_ioctl)
    i.disk_read                              0x000058f4   Section        0  fatfs_port_tm4c1294.o(i.disk_read)
    i.disk_status                            0x0000598c   Section        0  fatfs_port_tm4c1294.o(i.disk_status)
    i.disk_timerproc                         0x000059a0   Section        0  fatfs_port_tm4c1294.o(i.disk_timerproc)
    i.disk_write                             0x000059cc   Section        0  fatfs_port_tm4c1294.o(i.disk_write)
    i.f_close                                0x00005a90   Section        0  ff.o(i.f_close)
    i.f_lseek                                0x00005aa6   Section        0  ff.o(i.f_lseek)
    i.f_mount                                0x00005c54   Section        0  ff.o(i.f_mount)
    i.f_open                                 0x00005c80   Section        0  ff.o(i.f_open)
    i.f_read                                 0x00005dde   Section        0  ff.o(i.f_read)
    i.f_sync                                 0x00005fa8   Section        0  ff.o(i.f_sync)
    i.follow_path                            0x00006058   Section        0  ff.o(i.follow_path)
    follow_path                              0x00006059   Thumb Code   146  ff.o(i.follow_path)
    i.free                                   0x000060ec   Section        0  malloc.o(i.free)
    i.get_fat                                0x0000613c   Section        0  ff.o(i.get_fat)
    i.get_fattime                            0x00006220   Section        0  fatfs_port_tm4c1294.o(i.get_fattime)
    i.i2c_write                              0x00006228   Section        0  i2c.o(i.i2c_write)
    i.kalmanFilter                           0x00006294   Section        0  kalmanfilter.o(i.kalmanFilter)
    i.ld_clust                               0x000062f6   Section        0  ff.o(i.ld_clust)
    ld_clust                                 0x000062f7   Thumb Code    32  ff.o(i.ld_clust)
    i.main                                   0x00006316   Section        0  main.o(i.main)
    i.malloc                                 0x00006320   Section        0  malloc.o(i.malloc)
    i.mem_cmp                                0x0000638c   Section        0  ff.o(i.mem_cmp)
    mem_cmp                                  0x0000638d   Thumb Code    38  ff.o(i.mem_cmp)
    i.mem_cpy                                0x000063b2   Section        0  ff.o(i.mem_cpy)
    mem_cpy                                  0x000063b3   Thumb Code    26  ff.o(i.mem_cpy)
    i.mem_set                                0x000063cc   Section        0  ff.o(i.mem_set)
    mem_set                                  0x000063cd   Thumb Code    20  ff.o(i.mem_set)
    i.move_window                            0x000063e0   Section        0  ff.o(i.move_window)
    move_window                              0x000063e1   Thumb Code    50  ff.o(i.move_window)
    i.num2char                               0x00006414   Section        0  tft.o(i.num2char)
    i.pn532_read                             0x00006508   Section        0  pn532.o(i.pn532_read)
    i.power_off                              0x0000654c   Section        0  fatfs_port_tm4c1294.o(i.power_off)
    power_off                                0x0000654d   Thumb Code     8  fatfs_port_tm4c1294.o(i.power_off)
    i.power_on                               0x00006558   Section        0  fatfs_port_tm4c1294.o(i.power_on)
    power_on                                 0x00006559   Thumb Code   234  fatfs_port_tm4c1294.o(i.power_on)
    i.prvAddCurrentTaskToDelayedList         0x0000666c   Section        0  tasks.o(i.prvAddCurrentTaskToDelayedList)
    prvAddCurrentTaskToDelayedList           0x0000666d   Thumb Code    62  tasks.o(i.prvAddCurrentTaskToDelayedList)
    i.prvAllocateTCBAndStack                 0x000066c0   Section        0  tasks.o(i.prvAllocateTCBAndStack)
    prvAllocateTCBAndStack                   0x000066c1   Thumb Code    66  tasks.o(i.prvAllocateTCBAndStack)
    i.prvCheckForValidListAndQueue           0x00006704   Section        0  timers.o(i.prvCheckForValidListAndQueue)
    prvCheckForValidListAndQueue             0x00006705   Thumb Code    72  timers.o(i.prvCheckForValidListAndQueue)
    i.prvCheckTasksWaitingTermination        0x00006768   Section        0  tasks.o(i.prvCheckTasksWaitingTermination)
    prvCheckTasksWaitingTermination          0x00006769   Thumb Code    86  tasks.o(i.prvCheckTasksWaitingTermination)
    i.prvCopyDataFromQueue                   0x000067cc   Section        0  queue.o(i.prvCopyDataFromQueue)
    prvCopyDataFromQueue                     0x000067cd   Thumb Code    42  queue.o(i.prvCopyDataFromQueue)
    i.prvCopyDataToQueue                     0x000067f6   Section        0  queue.o(i.prvCopyDataToQueue)
    prvCopyDataToQueue                       0x000067f7   Thumb Code   128  queue.o(i.prvCopyDataToQueue)
    i.prvDeleteTCB                           0x00006876   Section        0  tasks.o(i.prvDeleteTCB)
    prvDeleteTCB                             0x00006877   Thumb Code    18  tasks.o(i.prvDeleteTCB)
    i.prvGetNextExpireTime                   0x00006888   Section        0  timers.o(i.prvGetNextExpireTime)
    prvGetNextExpireTime                     0x00006889   Thumb Code    36  timers.o(i.prvGetNextExpireTime)
    i.prvHeapInit                            0x000068b0   Section        0  heap_2.o(i.prvHeapInit)
    prvHeapInit                              0x000068b1   Thumb Code    38  heap_2.o(i.prvHeapInit)
    i.prvIdleTask                            0x000068e8   Section        0  tasks.o(i.prvIdleTask)
    prvIdleTask                              0x000068e9   Thumb Code     8  tasks.o(i.prvIdleTask)
    i.prvInitialiseTCBVariables              0x000068f0   Section        0  tasks.o(i.prvInitialiseTCBVariables)
    prvInitialiseTCBVariables                0x000068f1   Thumb Code    98  tasks.o(i.prvInitialiseTCBVariables)
    i.prvInitialiseTaskLists                 0x00006954   Section        0  tasks.o(i.prvInitialiseTaskLists)
    prvInitialiseTaskLists                   0x00006955   Thumb Code    70  tasks.o(i.prvInitialiseTaskLists)
    i.prvInsertTimerInActiveList             0x000069bc   Section        0  timers.o(i.prvInsertTimerInActiveList)
    prvInsertTimerInActiveList               0x000069bd   Thumb Code    80  timers.o(i.prvInsertTimerInActiveList)
    i.prvIsQueueEmpty                        0x00006a14   Section        0  queue.o(i.prvIsQueueEmpty)
    prvIsQueueEmpty                          0x00006a15   Thumb Code    26  queue.o(i.prvIsQueueEmpty)
    i.prvIsQueueFull                         0x00006a2e   Section        0  queue.o(i.prvIsQueueFull)
    prvIsQueueFull                           0x00006a2f   Thumb Code    30  queue.o(i.prvIsQueueFull)
    i.prvProcessExpiredTimer                 0x00006a4c   Section        0  timers.o(i.prvProcessExpiredTimer)
    prvProcessExpiredTimer                   0x00006a4d   Thumb Code    72  timers.o(i.prvProcessExpiredTimer)
    i.prvProcessReceivedCommands             0x00006a98   Section        0  timers.o(i.prvProcessReceivedCommands)
    prvProcessReceivedCommands               0x00006a99   Thumb Code   186  timers.o(i.prvProcessReceivedCommands)
    i.prvProcessTimerOrBlockTask             0x00006b58   Section        0  timers.o(i.prvProcessTimerOrBlockTask)
    prvProcessTimerOrBlockTask               0x00006b59   Thumb Code   102  timers.o(i.prvProcessTimerOrBlockTask)
    i.prvResetNextTaskUnblockTime            0x00006bcc   Section        0  tasks.o(i.prvResetNextTaskUnblockTime)
    prvResetNextTaskUnblockTime              0x00006bcd   Thumb Code    42  tasks.o(i.prvResetNextTaskUnblockTime)
    i.prvSampleTimeNow                       0x00006c00   Section        0  timers.o(i.prvSampleTimeNow)
    prvSampleTimeNow                         0x00006c01   Thumb Code    40  timers.o(i.prvSampleTimeNow)
    i.prvSwitchTimerLists                    0x00006c2c   Section        0  timers.o(i.prvSwitchTimerLists)
    prvSwitchTimerLists                      0x00006c2d   Thumb Code   122  timers.o(i.prvSwitchTimerLists)
    i.prvTaskExitError                       0x00006cb0   Section        0  port.o(i.prvTaskExitError)
    prvTaskExitError                         0x00006cb1   Thumb Code    22  port.o(i.prvTaskExitError)
    i.prvTestWaitCondition                   0x00006cc6   Section        0  event_groups.o(i.prvTestWaitCondition)
    prvTestWaitCondition                     0x00006cc7   Thumb Code    30  event_groups.o(i.prvTestWaitCondition)
    i.prvTimerTask                           0x00006ce4   Section        0  timers.o(i.prvTimerTask)
    prvTimerTask                             0x00006ce5   Thumb Code    26  timers.o(i.prvTimerTask)
    i.prvUnlockQueue                         0x00006cfe   Section        0  queue.o(i.prvUnlockQueue)
    prvUnlockQueue                           0x00006cff   Thumb Code   126  queue.o(i.prvUnlockQueue)
    i.put_fat                                0x00006d7c   Section        0  ff.o(i.put_fat)
    i.pvPortMalloc                           0x00006eb4   Section        0  heap_2.o(i.pvPortMalloc)
    i.pvTaskIncrementMutexHeldCount          0x00006f6c   Section        0  tasks.o(i.pvTaskIncrementMutexHeldCount)
    i.pxPortInitialiseStack                  0x00006f8c   Section        0  port.o(i.pxPortInitialiseStack)
    i.rcvr_datablock                         0x00006fb4   Section        0  fatfs_port_tm4c1294.o(i.rcvr_datablock)
    rcvr_datablock                           0x00006fb5   Thumb Code    76  fatfs_port_tm4c1294.o(i.rcvr_datablock)
    i.rcvr_spi                               0x00007004   Section        0  fatfs_port_tm4c1294.o(i.rcvr_spi)
    rcvr_spi                                 0x00007005   Thumb Code    36  fatfs_port_tm4c1294.o(i.rcvr_spi)
    i.rcvr_spi_m                             0x0000702c   Section        0  fatfs_port_tm4c1294.o(i.rcvr_spi_m)
    rcvr_spi_m                               0x0000702d   Thumb Code    12  fatfs_port_tm4c1294.o(i.rcvr_spi_m)
    i.remove_chain                           0x00007038   Section        0  ff.o(i.remove_chain)
    remove_chain                             0x00007039   Thumb Code   104  ff.o(i.remove_chain)
    i.send_cmd                               0x000070a0   Section        0  fatfs_port_tm4c1294.o(i.send_cmd)
    send_cmd                                 0x000070a1   Thumb Code   112  fatfs_port_tm4c1294.o(i.send_cmd)
    i.send_cmd12                             0x00007110   Section        0  fatfs_port_tm4c1294.o(i.send_cmd12)
    send_cmd12                               0x00007111   Thumb Code    66  fatfs_port_tm4c1294.o(i.send_cmd12)
    i.send_initial_clock_train               0x00007154   Section        0  fatfs_port_tm4c1294.o(i.send_initial_clock_train)
    send_initial_clock_train                 0x00007155   Thumb Code    90  fatfs_port_tm4c1294.o(i.send_initial_clock_train)
    i.set_max_speed                          0x000071b8   Section        0  fatfs_port_tm4c1294.o(i.set_max_speed)
    set_max_speed                            0x000071b9   Thumb Code    66  fatfs_port_tm4c1294.o(i.set_max_speed)
    i.setnumber                              0x00007208   Section        0  pca9557.o(i.setnumber)
    i.st_clust                               0x000073d0   Section        0  ff.o(i.st_clust)
    st_clust                                 0x000073d1   Thumb Code    16  ff.o(i.st_clust)
    i.sync_fs                                0x000073e0   Section        0  ff.o(i.sync_fs)
    sync_fs                                  0x000073e1   Thumb Code   200  ff.o(i.sync_fs)
    i.sync_window                            0x000074a8   Section        0  ff.o(i.sync_window)
    sync_window                              0x000074a9   Thumb Code    82  ff.o(i.sync_window)
    i.uxListRemove                           0x000074fa   Section        0  list.o(i.uxListRemove)
    i.uxTaskResetEventItemValue              0x00007524   Section        0  tasks.o(i.uxTaskResetEventItemValue)
    i.vListInitialise                        0x00007540   Section        0  list.o(i.vListInitialise)
    i.vListInitialiseItem                    0x0000755a   Section        0  list.o(i.vListInitialiseItem)
    i.vListInsert                            0x00007560   Section        0  list.o(i.vListInsert)
    i.vListInsertEnd                         0x00007594   Section        0  list.o(i.vListInsertEnd)
    i.vPortEnterCritical                     0x000075ac   Section        0  port.o(i.vPortEnterCritical)
    i.vPortExitCritical                      0x000075d0   Section        0  port.o(i.vPortExitCritical)
    i.vPortFree                              0x000075f0   Section        0  heap_2.o(i.vPortFree)
    i.vPortSetupTimerInterrupt               0x00007630   Section        0  port.o(i.vPortSetupTimerInterrupt)
    i.vQueueAddToRegistry                    0x00007644   Section        0  queue.o(i.vQueueAddToRegistry)
    i.vQueueWaitForMessageRestricted         0x00007670   Section        0  queue.o(i.vQueueWaitForMessageRestricted)
    i.vTaskDelay                             0x000076b4   Section        0  tasks.o(i.vTaskDelay)
    i.vTaskMissedYield                       0x00007718   Section        0  tasks.o(i.vTaskMissedYield)
    i.vTaskPlaceOnEventList                  0x00007724   Section        0  tasks.o(i.vTaskPlaceOnEventList)
    i.vTaskPlaceOnEventListRestricted        0x00007788   Section        0  tasks.o(i.vTaskPlaceOnEventListRestricted)
    i.vTaskPlaceOnUnorderedEventList         0x000077f4   Section        0  tasks.o(i.vTaskPlaceOnUnorderedEventList)
    i.vTaskPriorityInherit                   0x00007868   Section        0  tasks.o(i.vTaskPriorityInherit)
    i.vTaskSetTimeOutState                   0x00007918   Section        0  tasks.o(i.vTaskSetTimeOutState)
    i.vTaskStartScheduler                    0x00007930   Section        0  tasks.o(i.vTaskStartScheduler)
    i.vTaskSuspendAll                        0x000079a0   Section        0  tasks.o(i.vTaskSuspendAll)
    i.vTaskSwitchContext                     0x000079b0   Section        0  tasks.o(i.vTaskSwitchContext)
    i.validate                               0x00007a10   Section        0  ff.o(i.validate)
    validate                                 0x00007a11   Thumb Code    54  ff.o(i.validate)
    i.wait_ready                             0x00007a48   Section        0  fatfs_port_tm4c1294.o(i.wait_ready)
    wait_ready                               0x00007a49   Thumb Code    36  fatfs_port_tm4c1294.o(i.wait_ready)
    i.xEventGroupCreate                      0x00007a70   Section        0  event_groups.o(i.xEventGroupCreate)
    i.xEventGroupSetBits                     0x00007a8a   Section        0  event_groups.o(i.xEventGroupSetBits)
    i.xEventGroupWaitBits                    0x00007b1c   Section        0  event_groups.o(i.xEventGroupWaitBits)
    i.xPortStartScheduler                    0x00007be4   Section        0  port.o(i.xPortStartScheduler)
    i.xPortSysTickHandler                    0x00007c2c   Section        0  port.o(i.xPortSysTickHandler)
    i.xQueueGenericCreate                    0x00007c60   Section        0  queue.o(i.xQueueGenericCreate)
    i.xQueueGenericReceive                   0x00007cac   Section        0  queue.o(i.xQueueGenericReceive)
    i.xQueueGenericReset                     0x00007df0   Section        0  queue.o(i.xQueueGenericReset)
    i.xQueueGenericSend                      0x00007e6c   Section        0  queue.o(i.xQueueGenericSend)
    i.xQueueGenericSendFromISR               0x00007f7c   Section        0  queue.o(i.xQueueGenericSendFromISR)
    i.xQueueGiveFromISR                      0x00007ffa   Section        0  queue.o(i.xQueueGiveFromISR)
    i.xTaskCheckForTimeOut                   0x00008068   Section        0  tasks.o(i.xTaskCheckForTimeOut)
    i.xTaskGenericCreate                     0x000080c4   Section        0  tasks.o(i.xTaskGenericCreate)
    i.xTaskGetSchedulerState                 0x000081d4   Section        0  tasks.o(i.xTaskGetSchedulerState)
    i.xTaskGetTickCount                      0x000081f4   Section        0  tasks.o(i.xTaskGetTickCount)
    i.xTaskIncrementTick                     0x00008200   Section        0  tasks.o(i.xTaskIncrementTick)
    i.xTaskPriorityDisinherit                0x00008320   Section        0  tasks.o(i.xTaskPriorityDisinherit)
    i.xTaskRemoveFromEventList               0x000083a4   Section        0  tasks.o(i.xTaskRemoveFromEventList)
    i.xTaskRemoveFromUnorderedEventList      0x00008424   Section        0  tasks.o(i.xTaskRemoveFromUnorderedEventList)
    i.xTaskResumeAll                         0x00008494   Section        0  tasks.o(i.xTaskResumeAll)
    i.xTimerCreate                           0x0000857c   Section        0  timers.o(i.xTimerCreate)
    i.xTimerCreateTimerTask                  0x000085bc   Section        0  timers.o(i.xTimerCreateTimerTask)
    i.xTimerGenericCommand                   0x000085fc   Section        0  timers.o(i.xTimerGenericCommand)
    i.xmit_datablock                         0x00008668   Section        0  fatfs_port_tm4c1294.o(i.xmit_datablock)
    xmit_datablock                           0x00008669   Thumb Code    94  fatfs_port_tm4c1294.o(i.xmit_datablock)
    i.xmit_spi                               0x000086c8   Section        0  fatfs_port_tm4c1294.o(i.xmit_spi)
    xmit_spi                                 0x000086c9   Thumb Code    34  fatfs_port_tm4c1294.o(i.xmit_spi)
    .constdata                               0x000086f0   Section      128  application.o(.constdata)
    tubeCodeTable                            0x000086f0   Data          32  application.o(.constdata)
    .constdata                               0x00008770   Section     2676  tft.o(.constdata)
    .constdata                               0x000091e4   Section       48  touch.o(.constdata)
    .constdata                               0x00009214   Section       32  pca9557.o(.constdata)
    tubeCodeTable                            0x00009214   Data          32  pca9557.o(.constdata)
    .constdata                               0x00009234   Section     2072  oled_i2c.o(.constdata)
    .constdata                               0x00009a4c   Section      552  gpio.o(.constdata)
    g_ppui32GPIOIntMapBlizzard               0x00009a4c   Data         192  gpio.o(.constdata)
    g_ppui32GPIOIntMapSnowflake              0x00009b0c   Data         216  gpio.o(.constdata)
    g_pui32GPIOBaseAddrs                     0x00009be4   Data         144  gpio.o(.constdata)
    .constdata                               0x00009c74   Section      268  interrupt.o(.constdata)
    g_pui32Priority                          0x00009c74   Data          32  interrupt.o(.constdata)
    g_pui32Regs                              0x00009c94   Data         156  interrupt.o(.constdata)
    g_pui32EnRegs                            0x00009d30   Data          20  interrupt.o(.constdata)
    g_pui32Dii16Regs                         0x00009d44   Data          20  interrupt.o(.constdata)
    g_pui32PendRegs                          0x00009d58   Data          20  interrupt.o(.constdata)
    g_pui32UnpendRegs                        0x00009d6c   Data          20  interrupt.o(.constdata)
    .constdata                               0x00009d80   Section      596  sysctl.o(.constdata)
    g_pui32VCOFrequencies                    0x00009d80   Data           8  sysctl.o(.constdata)
    g_pui32Xtals                             0x00009d88   Data         108  sysctl.o(.constdata)
    g_pppui32XTALtoVCO                       0x00009df4   Data         432  sysctl.o(.constdata)
    g_sXTALtoMEMTIM                          0x00009fa4   Data          48  sysctl.o(.constdata)
    .constdata                               0x00009fd4   Section      160  timer.o(.constdata)
    g_ppui32TimerIntMap                      0x00009fd4   Data          96  timer.o(.constdata)
    g_ppui32TimerIntMapSnowflake             0x0000a034   Data          64  timer.o(.constdata)
    .data                                    0x20000000   Section       52  control.o(.data)
    .data                                    0x20000034   Section       90  bmp.o(.data)
    g_cCwdBuf                                0x20000034   Data          80  bmp.o(.data)
    .data                                    0x20000090   Section      173  application.o(.data)
    g_cCwdBuf                                0x20000090   Data          80  application.o(.data)
    PN532_ACTIVE                             0x200000e0   Data          24  application.o(.data)
    PN532_ACTIVE_OK                          0x200000f8   Data          15  application.o(.data)
    PN532_GETUID                             0x20000107   Data          11  application.o(.data)
    volume                                   0x2000013c   Data           1  application.o(.data)
    .data                                    0x20000140   Section      406  tft.o(.data)
    g_ulTickCount                            0x200002c0   Data           4  tft.o(.data)
    table                                    0x200002cc   Data          10  tft.o(.data)
    .data                                    0x200002d6   Section        5  fatfs_port_tm4c1294.o(.data)
    Stat                                     0x200002d6   Data           1  fatfs_port_tm4c1294.o(.data)
    Timer1                                   0x200002d7   Data           1  fatfs_port_tm4c1294.o(.data)
    Timer2                                   0x200002d8   Data           1  fatfs_port_tm4c1294.o(.data)
    CardType                                 0x200002d9   Data           1  fatfs_port_tm4c1294.o(.data)
    PowerFlag                                0x200002da   Data           1  fatfs_port_tm4c1294.o(.data)
    .data                                    0x200002db   Section        2  pca9557.o(.data)
    .data                                    0x200002dd   Section       50  pn532.o(.data)
    PN532_ACTIVE                             0x200002dd   Data          24  pn532.o(.data)
    PN532_ACTIVE_OK                          0x200002f5   Data          15  pn532.o(.data)
    PN532_GETUID                             0x20000304   Data          11  pn532.o(.data)
    .data                                    0x20000310   Section        6  ff.o(.data)
    FatFs                                    0x20000310   Data           4  ff.o(.data)
    Fsid                                     0x20000314   Data           2  ff.o(.data)
    .data                                    0x20000318   Section       24  heap_2.o(.data)
    xStart                                   0x20000318   Data           8  heap_2.o(.data)
    xEnd                                     0x20000320   Data           8  heap_2.o(.data)
    xFreeBytesRemaining                      0x20000328   Data           4  heap_2.o(.data)
    xHeapHasBeenInitialised                  0x2000032c   Data           4  heap_2.o(.data)
    .data                                    0x20000330   Section        4  port.o(.data)
    uxCriticalNesting                        0x20000330   Data           4  port.o(.data)
    .data                                    0x20000334   Section       56  tasks.o(.data)
    pxDelayedTaskList                        0x20000338   Data           4  tasks.o(.data)
    pxOverflowDelayedTaskList                0x2000033c   Data           4  tasks.o(.data)
    uxTasksDeleted                           0x20000340   Data           4  tasks.o(.data)
    uxCurrentNumberOfTasks                   0x20000344   Data           4  tasks.o(.data)
    xTickCount                               0x20000348   Data           4  tasks.o(.data)
    uxTopReadyPriority                       0x2000034c   Data           4  tasks.o(.data)
    xSchedulerRunning                        0x20000350   Data           4  tasks.o(.data)
    uxPendedTicks                            0x20000354   Data           4  tasks.o(.data)
    xYieldPending                            0x20000358   Data           4  tasks.o(.data)
    xNumOfOverflows                          0x2000035c   Data           4  tasks.o(.data)
    uxTaskNumber                             0x20000360   Data           4  tasks.o(.data)
    xNextTaskUnblockTime                     0x20000364   Data           4  tasks.o(.data)
    uxSchedulerSuspended                     0x20000368   Data           4  tasks.o(.data)
    .data                                    0x2000036c   Section       16  timers.o(.data)
    pxCurrentTimerList                       0x2000036c   Data           4  timers.o(.data)
    pxOverflowTimerList                      0x20000370   Data           4  timers.o(.data)
    xTimerQueue                              0x20000374   Data           4  timers.o(.data)
    xLastTime                                0x20000378   Data           4  timers.o(.data)
    .data                                    0x2000037c   Section        4  mvars.o(.data)
    .data                                    0x20000380   Section        4  mvars.o(.data)
    vtable                                   0x20000400   Section      620  interrupt.o(vtable)
    g_pfnRAMVectors                          0x20000400   Data         620  interrupt.o(vtable)
    .bss                                     0x2000066c   Section     2490  bmp.o(.bss)
    g_cTmpBuf                                0x2000066c   Data          80  bmp.o(.bss)
    g_cCmdBuf                                0x200006bc   Data          64  bmp.o(.bss)
    g_sFatFs                                 0x200006fc   Data         564  bmp.o(.bss)
    g_sDirObject                             0x20000930   Data          28  bmp.o(.bss)
    g_sFileInfo                              0x2000094c   Data          24  bmp.o(.bss)
    g_sFileObject                            0x20000964   Data         548  bmp.o(.bss)
    .bss                                     0x20001028   Section     1381  application.o(.bss)
    g_cTmpBuf                                0x20001028   Data          80  application.o(.bss)
    g_cCmdBuf                                0x20001078   Data          64  application.o(.bss)
    g_sFatFs                                 0x200010b8   Data         564  application.o(.bss)
    g_sDirObject                             0x200012ec   Data          28  application.o(.bss)
    g_sFileInfo                              0x20001308   Data          24  application.o(.bss)
    g_sFileObject                            0x20001320   Data         548  application.o(.bss)
    PN532_BUFFER                             0x20001544   Data          40  application.o(.bss)
    .bss                                     0x2000158d   Section       40  pn532.o(.bss)
    PN532_BUFFER                             0x2000158d   Data          40  pn532.o(.bss)
    .bss                                     0x200015b5   Section    80000  heap_2.o(.bss)
    ucHeap                                   0x200015b5   Data       80000  heap_2.o(.bss)
    .bss                                     0x20014e38   Section       80  queue.o(.bss)
    .bss                                     0x20014e88   Section      420  tasks.o(.bss)
    pxReadyTasksLists                        0x20014e88   Data         320  tasks.o(.bss)
    xDelayedTaskList1                        0x20014fc8   Data          20  tasks.o(.bss)
    xDelayedTaskList2                        0x20014fdc   Data          20  tasks.o(.bss)
    xPendingReadyList                        0x20014ff0   Data          20  tasks.o(.bss)
    xTasksWaitingTermination                 0x20015004   Data          20  tasks.o(.bss)
    xSuspendedTaskList                       0x20015018   Data          20  tasks.o(.bss)
    .bss                                     0x2001502c   Section       40  timers.o(.bss)
    xActiveTimerList1                        0x2001502c   Data          20  timers.o(.bss)
    xActiveTimerList2                        0x20015040   Data          20  timers.o(.bss)
    HEAP                                     0x20015058   Section    61440  startup_rvmdk.o(HEAP)
    STACK                                    0x20024058   Section    32768  startup_rvmdk.o(STACK)
    StackMem                                 0x20024058   Data           0  startup_rvmdk.o(STACK)

    Global Symbols

    Symbol Name                              Value     Ov Type        Size  Object(Section)

    BuildAttributes$$THM_ISAv4$E$P$D$K$B$S$7EM$VFPi3$EXTD16$VFPS$VFMA$PE$A:L22UL41UL21$X:L11$S22US41US21$IEEE1$IW$USESV6$~STKCKD$USESV7$~SHL$OTIME$ROPI$EBA8$MICROLIB$REQ8$PRES8$EABIv2 0x00000000   Number         0  anon$$obj.o ABSOLUTE
    __ARM_use_no_argv                        0x00000000   Number         0  main.o ABSOLUTE
    __Vectors                                0x00000000   Data           0  startup_rvmdk.o(RESET)
    _printf_a                                0x00000000   Number         0  stubs.o ABSOLUTE
    _printf_c                                0x00000000   Number         0  stubs.o ABSOLUTE
    _printf_charcount                        0x00000000   Number         0  stubs.o ABSOLUTE
    _printf_d                                0x00000000   Number         0  stubs.o ABSOLUTE
    _printf_e                                0x00000000   Number         0  stubs.o ABSOLUTE
    _printf_f                                0x00000000   Number         0  stubs.o ABSOLUTE
    _printf_flags                            0x00000000   Number         0  stubs.o ABSOLUTE
    _printf_fp_dec                           0x00000000   Number         0  stubs.o ABSOLUTE
    _printf_fp_hex                           0x00000000   Number         0  stubs.o ABSOLUTE
    _printf_g                                0x00000000   Number         0  stubs.o ABSOLUTE
    _printf_i                                0x00000000   Number         0  stubs.o ABSOLUTE
    _printf_int_dec                          0x00000000   Number         0  stubs.o ABSOLUTE
    _printf_l                                0x00000000   Number         0  stubs.o ABSOLUTE
    _printf_lc                               0x00000000   Number         0  stubs.o ABSOLUTE
    _printf_ll                               0x00000000   Number         0  stubs.o ABSOLUTE
    _printf_lld                              0x00000000   Number         0  stubs.o ABSOLUTE
    _printf_lli                              0x00000000   Number         0  stubs.o ABSOLUTE
    _printf_llo                              0x00000000   Number         0  stubs.o ABSOLUTE
    _printf_llu                              0x00000000   Number         0  stubs.o ABSOLUTE
    _printf_llx                              0x00000000   Number         0  stubs.o ABSOLUTE
    _printf_longlong_dec                     0x00000000   Number         0  stubs.o ABSOLUTE
    _printf_longlong_hex                     0x00000000   Number         0  stubs.o ABSOLUTE
    _printf_longlong_oct                     0x00000000   Number         0  stubs.o ABSOLUTE
    _printf_ls                               0x00000000   Number         0  stubs.o ABSOLUTE
    _printf_mbtowc                           0x00000000   Number         0  stubs.o ABSOLUTE
    _printf_n                                0x00000000   Number         0  stubs.o ABSOLUTE
    _printf_o                                0x00000000   Number         0  stubs.o ABSOLUTE
    _printf_p                                0x00000000   Number         0  stubs.o ABSOLUTE
    _printf_percent                          0x00000000   Number         0  stubs.o ABSOLUTE
    _printf_pre_padding                      0x00000000   Number         0  stubs.o ABSOLUTE
    _printf_return_value                     0x00000000   Number         0  stubs.o ABSOLUTE
    _printf_s                                0x00000000   Number         0  stubs.o ABSOLUTE
    _printf_sizespec                         0x00000000   Number         0  stubs.o ABSOLUTE
    _printf_str                              0x00000000   Number         0  stubs.o ABSOLUTE
    _printf_truncate_signed                  0x00000000   Number         0  stubs.o ABSOLUTE
    _printf_truncate_unsigned                0x00000000   Number         0  stubs.o ABSOLUTE
    _printf_u                                0x00000000   Number         0  stubs.o ABSOLUTE
    _printf_wc                               0x00000000   Number         0  stubs.o ABSOLUTE
    _printf_wctomb                           0x00000000   Number         0  stubs.o ABSOLUTE
    _printf_widthprec                        0x00000000   Number         0  stubs.o ABSOLUTE
    _printf_x                                0x00000000   Number         0  stubs.o ABSOLUTE
    __cpp_initialize__aeabi_                  - Undefined Weak Reference
    __cxa_finalize                            - Undefined Weak Reference
    _clock_init                               - Undefined Weak Reference
    _microlib_exit                            - Undefined Weak Reference
    Reset_Handler                            0x0000026d   Thumb Code     0  startup_rvmdk.o(RESET)
    __main                                   0x00000289   Thumb Code     0  entry.o(.ARM.Collect$$$$00000000)
    _main_stk                                0x00000289   Thumb Code     0  entry2.o(.ARM.Collect$$$$00000001)
    _main_scatterload                        0x0000028d   Thumb Code     0  entry5.o(.ARM.Collect$$$$00000004)
    __main_after_scatterload                 0x00000291   Thumb Code     0  entry5.o(.ARM.Collect$$$$00000004)
    _main_clock                              0x00000291   Thumb Code     0  entry7b.o(.ARM.Collect$$$$00000008)
    _main_cpp_init                           0x00000291   Thumb Code     0  entry8b.o(.ARM.Collect$$$$0000000A)
    _main_init                               0x00000291   Thumb Code     0  entry9a.o(.ARM.Collect$$$$0000000B)
    __rt_final_cpp                           0x00000299   Thumb Code     0  entry10a.o(.ARM.Collect$$$$0000000D)
    __rt_final_exit                          0x00000299   Thumb Code     0  entry11a.o(.ARM.Collect$$$$0000000F)
    vPortSVCHandler                          0x0000029d   Thumb Code    28  port.o(.emb_text)
    __asm___6_port_c_39a90d8d__prvStartFirstTask 0x000002bd   Thumb Code    28  port.o(.emb_text)
    __asm___6_port_c_39a90d8d__prvEnableVFP  0x000002dd   Thumb Code    16  port.o(.emb_text)
    xPortPendSVHandler                       0x000002f1   Thumb Code    88  port.o(.emb_text)
    vPortGetIPSR                             0x0000034d   Thumb Code     6  port.o(.emb_text)
    SysCtlDelay                              0x00000355   Thumb Code     6  sysctl.o(.emb_text)
    CPUcpsid                                 0x0000035d   Thumb Code     8  cpu.o(.emb_text)
    CPUprimask                               0x00000365   Thumb Code     6  cpu.o(.emb_text)
    CPUcpsie                                 0x0000036b   Thumb Code     8  cpu.o(.emb_text)
    CPUwfi                                   0x00000373   Thumb Code     4  cpu.o(.emb_text)
    CPUbasepriSet                            0x00000377   Thumb Code     6  cpu.o(.emb_text)
    CPUbasepriGet                            0x0000037d   Thumb Code     6  cpu.o(.emb_text)
    __aeabi_memcpy                           0x00000383   Thumb Code    36  memcpya.o(.text)
    __aeabi_memcpy4                          0x00000383   Thumb Code     0  memcpya.o(.text)
    __aeabi_memcpy8                          0x00000383   Thumb Code     0  memcpya.o(.text)
    __aeabi_memset                           0x000003a7   Thumb Code    14  memseta.o(.text)
    __aeabi_memset4                          0x000003a7   Thumb Code     0  memseta.o(.text)
    __aeabi_memset8                          0x000003a7   Thumb Code     0  memseta.o(.text)
    __aeabi_memclr                           0x000003b5   Thumb Code     4  memseta.o(.text)
    __aeabi_memclr4                          0x000003b5   Thumb Code     0  memseta.o(.text)
    __aeabi_memclr8                          0x000003b5   Thumb Code     0  memseta.o(.text)
    _memset$wrapper                          0x000003b9   Thumb Code    18  memseta.o(.text)
    __aeabi_dadd                             0x000003cb   Thumb Code   322  dadd.o(.text)
    __aeabi_dsub                             0x0000050d   Thumb Code     6  dadd.o(.text)
    __aeabi_drsub                            0x00000513   Thumb Code     6  dadd.o(.text)
    __aeabi_dmul                             0x00000519   Thumb Code   228  dmul.o(.text)
    __aeabi_ddiv                             0x000005fd   Thumb Code   222  ddiv.o(.text)
    __aeabi_ui2d                             0x000006db   Thumb Code    26  dfltui.o(.text)
    __aeabi_d2iz                             0x000006f5   Thumb Code    62  dfixi.o(.text)
    __aeabi_d2uiz                            0x00000733   Thumb Code    50  dfixui.o(.text)
    __aeabi_f2d                              0x00000765   Thumb Code    38  f2d.o(.text)
    __aeabi_d2f                              0x0000078b   Thumb Code    56  d2f.o(.text)
    __aeabi_uidiv                            0x000007c3   Thumb Code     0  uidiv.o(.text)
    __aeabi_uidivmod                         0x000007c3   Thumb Code    44  uidiv.o(.text)
    __aeabi_uldivmod                         0x000007ef   Thumb Code    98  uldiv.o(.text)
    __aeabi_llsl                             0x00000851   Thumb Code    30  llshl.o(.text)
    _ll_shift_l                              0x00000851   Thumb Code     0  llshl.o(.text)
    __aeabi_llsr                             0x0000086f   Thumb Code    32  llushr.o(.text)
    _ll_ushift_r                             0x0000086f   Thumb Code     0  llushr.o(.text)
    __aeabi_lasr                             0x0000088f   Thumb Code    36  llsshr.o(.text)
    _ll_sshift_r                             0x0000088f   Thumb Code     0  llsshr.o(.text)
    __I$use$fp                               0x000008b3   Thumb Code     0  iusefp.o(.text)
    _float_round                             0x000008b3   Thumb Code    18  fepilogue.o(.text)
    _float_epilogue                          0x000008c5   Thumb Code    92  fepilogue.o(.text)
    _double_round                            0x00000921   Thumb Code    30  depilogue.o(.text)
    _double_epilogue                         0x0000093f   Thumb Code   156  depilogue.o(.text)
    __aeabi_d2ulz                            0x000009db   Thumb Code    48  dfixul.o(.text)
    __aeabi_cdrcmple                         0x00000a0d   Thumb Code    48  cdrcmple.o(.text)
    __scatterload                            0x00000a3d   Thumb Code    28  init.o(.text)
    __scatterload_rt2                        0x00000a3d   Thumb Code     0  init.o(.text)
    __decompress                             0x00000a61   Thumb Code     0  __dclz77c.o(.text)
    __decompress2                            0x00000a61   Thumb Code    94  __dclz77c.o(.text)
    ACCELERATOR_Init                         0x00000abf   Thumb Code   126  accelerator.o(i.ACCELERATOR_Init)
    ACCELERATOR_Read                         0x00000b3d   Thumb Code   298  accelerator.o(i.ACCELERATOR_Read)
    ADC0_Init                                0x00000c69   Thumb Code   120  adc.o(i.ADC0_Init)
    ADC0_Read                                0x00000cf5   Thumb Code   108  adc.o(i.ADC0_Read)
    ADCIntClear                              0x00000d65   Thumb Code    10  adc.o(i.ADCIntClear)
    ADCIntStatus                             0x00000d6f   Thumb Code    52  adc.o(i.ADCIntStatus)
    ADCProcessorTrigger                      0x00000da3   Thumb Code    26  adc.o(i.ADCProcessorTrigger)
    ADCSequenceConfigure                     0x00000f95   Thumb Code    96  adc.o(i.ADCSequenceConfigure)
    ADCSequenceDataGet                       0x00000ff5   Thumb Code    36  adc.o(i.ADCSequenceDataGet)
    ADCSequenceEnable                        0x00001019   Thumb Code    14  adc.o(i.ADCSequenceEnable)
    ADCSequenceStepConfigure                 0x00001027   Thumb Code   154  adc.o(i.ADCSequenceStepConfigure)
    ADD_VOLUME                               0x000010c1   Thumb Code    14  control.o(i.ADD_VOLUME)
    BSP_Init                                 0x0000113d   Thumb Code   204  application.o(i.BSP_Init)
    BUZZER_Beep                              0x0000124d   Thumb Code    70  buzzer.o(i.BUZZER_Beep)
    BUZZER_Init                              0x0000129d   Thumb Code    32  buzzer.o(i.BUZZER_Init)
    Button_Reconize                          0x000012c5   Thumb Code   208  touch.o(i.Button_Reconize)
    Delay5us                                 0x00001461   Thumb Code    24  i2c.o(i.Delay5us)
    EPIAddressMapSet                         0x00001479   Thumb Code     4  epi.o(i.EPIAddressMapSet)
    EPIConfigHB16Set                         0x0000147d   Thumb Code    32  epi.o(i.EPIConfigHB16Set)
    EPIGPIOinit                              0x0000149d   Thumb Code   196  epiinit.o(i.EPIGPIOinit)
    EPIModeSet                               0x00001595   Thumb Code     4  epi.o(i.EPIModeSet)
    FPUEnable                                0x00001599   Thumb Code    12  fpu.o(i.FPUEnable)
    FPULazyStackingEnable                    0x000015a9   Thumb Code    12  fpu.o(i.FPULazyStackingEnable)
    FreeRTOS_Init                            0x000015b9   Thumb Code   312  application.o(i.FreeRTOS_Init)
    GPIODirModeSet                           0x0000178f   Thumb Code    40  gpio.o(i.GPIODirModeSet)
    GPIOIntClear                             0x000017b7   Thumb Code     6  gpio.o(i.GPIOIntClear)
    GPIOIntEnable                            0x000017bd   Thumb Code    12  gpio.o(i.GPIOIntEnable)
    GPIOIntRegister                          0x000017c9   Thumb Code    26  gpio.o(i.GPIOIntRegister)
    GPIOIntTypeSet                           0x000017e3   Thumb Code    80  gpio.o(i.GPIOIntTypeSet)
    GPION_IRQ                                0x00001835   Thumb Code   118  infrared.o(i.GPION_IRQ)
    GPIOPadConfigSet                         0x000018c5   Thumb Code   312  gpio.o(i.GPIOPadConfigSet)
    GPIOPinConfigure                         0x000019fd   Thumb Code    60  gpio.o(i.GPIOPinConfigure)
    GPIOPinRead                              0x00001a41   Thumb Code     6  gpio.o(i.GPIOPinRead)
    GPIOPinTypeADC                           0x00001a47   Thumb Code    28  gpio.o(i.GPIOPinTypeADC)
    GPIOPinTypeEPI                           0x00001a63   Thumb Code    28  gpio.o(i.GPIOPinTypeEPI)
    GPIOPinTypeGPIOInput                     0x00001a7f   Thumb Code    28  gpio.o(i.GPIOPinTypeGPIOInput)
    GPIOPinTypeGPIOOutput                    0x00001a9b   Thumb Code    28  gpio.o(i.GPIOPinTypeGPIOOutput)
    GPIOPinTypeI2C                           0x00001ab7   Thumb Code    28  gpio.o(i.GPIOPinTypeI2C)
    GPIOPinTypeI2CSCL                        0x00001ad3   Thumb Code    28  gpio.o(i.GPIOPinTypeI2CSCL)
    GPIOPinTypeSSI                           0x00001aef   Thumb Code    28  gpio.o(i.GPIOPinTypeSSI)
    GPIOPinTypeUART                          0x00001b0b   Thumb Code    28  gpio.o(i.GPIOPinTypeUART)
    GPIOPinWrite                             0x00001b27   Thumb Code     6  gpio.o(i.GPIOPinWrite)
    Get_Point                                0x00001b2d   Thumb Code   318  touch.o(i.Get_Point)
    I2C0DeviceInit                           0x00001d4d   Thumb Code    40  pca9557.o(i.I2C0DeviceInit)
    I2C0GPIOBEnable                          0x00001d79   Thumb Code    54  i2c.o(i.I2C0GPIOBEnable)
    I2C0MasterInit                           0x00001dbd   Thumb Code    26  pca9557.o(i.I2C0MasterInit)
    I2C0PinConfig                            0x00001de5   Thumb Code    46  pca9557.o(i.I2C0PinConfig)
    I2C0Send                                 0x00001e25   Thumb Code   230  pca9557.o(i.I2C0Send)
    I2C0TubeHighSet                          0x00001f11   Thumb Code    26  pca9557.o(i.I2C0TubeHighSet)
    I2C0TubeLowSet                           0x00001f31   Thumb Code    26  pca9557.o(i.I2C0TubeLowSet)
    I2C0TubeSelSet                           0x00001f51   Thumb Code    26  pca9557.o(i.I2C0TubeSelSet)
    I2C3MasterInit                           0x00001f71   Thumb Code    26  oled_i2c.o(i.I2C3MasterInit)
    I2C3PinConfig                            0x00001f99   Thumb Code    46  oled_i2c.o(i.I2C3PinConfig)
    I2C3Send                                 0x00001fd9   Thumb Code   230  oled_i2c.o(i.I2C3Send)
    I2CMasterBusy                            0x000020c5   Thumb Code    12  i2c.o(i.I2CMasterBusy)
    I2CMasterControl                         0x000020d1   Thumb Code     4  i2c.o(i.I2CMasterControl)
    I2CMasterDataPut                         0x000020d5   Thumb Code     4  i2c.o(i.I2CMasterDataPut)
    I2CMasterEnable                          0x000020d9   Thumb Code    10  i2c.o(i.I2CMasterEnable)
    I2CMasterErr                             0x000020e3   Thumb Code    24  i2c.o(i.I2CMasterErr)
    I2CMasterInitExpClk                      0x000020fd   Thumb Code    72  i2c.o(i.I2CMasterInitExpClk)
    I2CMasterSlaveAddrSet                    0x00002151   Thumb Code     8  i2c.o(i.I2CMasterSlaveAddrSet)
    I2CRead                                  0x00002159   Thumb Code    20  accelerator.o(i.I2CRead)
    I2CSend                                  0x0000216d   Thumb Code    64  accelerator.o(i.I2CSend)
    I2CSlaveEnable                           0x000021ad   Thumb Code    16  i2c.o(i.I2CSlaveEnable)
    I2C_GetACK                               0x000021bd   Thumb Code    68  i2c.o(i.I2C_GetACK)
    I2C_RxByte                               0x00002205   Thumb Code    86  i2c.o(i.I2C_RxByte)
    I2C_START                                0x00002261   Thumb Code    58  i2c.o(i.I2C_START)
    I2C_STOP                                 0x000022a1   Thumb Code    68  i2c.o(i.I2C_STOP)
    I2C_SetNAk                               0x000022e9   Thumb Code    28  i2c.o(i.I2C_SetNAk)
    I2C_Set_scl_high                         0x00002309   Thumb Code    22  i2c.o(i.I2C_Set_scl_high)
    I2C_Set_scl_low                          0x00002325   Thumb Code    22  i2c.o(i.I2C_Set_scl_low)
    I2C_Set_sda_high                         0x00002341   Thumb Code    22  i2c.o(i.I2C_Set_sda_high)
    I2C_Set_sda_low                          0x0000235d   Thumb Code    22  i2c.o(i.I2C_Set_sda_low)
    I2C_TxByte                               0x00002379   Thumb Code    72  i2c.o(i.I2C_TxByte)
    INFRARED_Init                            0x00002449   Thumb Code    80  infrared.o(i.INFRARED_Init)
    InitGPIOLCDInterface                     0x000024a5   Thumb Code   206  tft.o(i.InitGPIOLCDInterface)
    IntEnable                                0x00002589   Thumb Code    92  interrupt.o(i.IntEnable)
    IntMasterEnable                          0x000025ed   Thumb Code    14  interrupt.o(i.IntMasterEnable)
    IntPrioritySet                           0x000025fd   Thumb Code    36  interrupt.o(i.IntPrioritySet)
    IntRegister                              0x00002625   Thumb Code    44  interrupt.o(i.IntRegister)
    Ir_Server                                0x00002659   Thumb Code    96  infrared.o(i.Ir_Server)
    LED_BLINK                                0x000026e9   Thumb Code    28  application.o(i.LED_BLINK)
    LED_Close                                0x00002709   Thumb Code   124  led.o(i.LED_Close)
    LED_Init                                 0x0000278d   Thumb Code    62  led.o(i.LED_Init)
    LED_Open                                 0x000027d9   Thumb Code   124  led.o(i.LED_Open)
    NEXT                                     0x0000285d   Thumb Code    14  control.o(i.NEXT)
    OLED_CLS                                 0x00002875   Thumb Code    10  oled_i2c.o(i.OLED_CLS)
    OLED_Fill                                0x0000287f   Thumb Code    58  oled_i2c.o(i.OLED_Fill)
    OLED_Init                                0x000028b9   Thumb Code   190  oled_i2c.o(i.OLED_Init)
    OLED_SetPos                              0x0000297d   Thumb Code    40  oled_i2c.o(i.OLED_SetPos)
    OLED_ShowStr                             0x000029a5   Thumb Code   228  oled_i2c.o(i.OLED_ShowStr)
    PCA9557_Init                             0x00002a91   Thumb Code    22  pca9557.o(i.PCA9557_Init)
    PLAYER_Init                              0x00002aad   Thumb Code    14  control.o(i.PLAYER_Init)
    PLAY_OR_PAUSE                            0x00002ac5   Thumb Code    14  control.o(i.PLAY_OR_PAUSE)
    PN532_Active                             0x00002add   Thumb Code    66  pn532.o(i.PN532_Active)
    PN532_Clearbuffer                        0x00002b31   Thumb Code    18  pn532.o(i.PN532_Clearbuffer)
    PN532_Init                               0x00002b49   Thumb Code     8  pn532.o(i.PN532_Init)
    PN532_Readuid                            0x00002b51   Thumb Code    30  pn532.o(i.PN532_Readuid)
    PREVIOUS                                 0x00002b71   Thumb Code    14  control.o(i.PREVIOUS)
    RGB888ToBGR565                           0x00002b89   Thumb Code    26  bmp.o(i.RGB888ToBGR565)
    SET_VOLUME                               0x00002bc5   Thumb Code    36  control.o(i.SET_VOLUME)
    SINGLE_read                              0x00002bf5   Thumb Code   106  i2c.o(i.SINGLE_read)
    SSIConfigSetExpClk                       0x00002c5f   Thumb Code    58  ssi.o(i.SSIConfigSetExpClk)
    SSIDataGet                               0x00002c99   Thumb Code    14  ssi.o(i.SSIDataGet)
    SSIDataGetNonBlocking                    0x00002ca7   Thumb Code    20  ssi.o(i.SSIDataGetNonBlocking)
    SSIDataPut                               0x00002cbb   Thumb Code    12  ssi.o(i.SSIDataPut)
    SSIEnable                                0x00002cc7   Thumb Code    10  ssi.o(i.SSIEnable)
    SSIinit                                  0x00002cd1   Thumb Code   104  touch.o(i.SSIinit)
    SUB_VOLUME                               0x00002d49   Thumb Code    14  control.o(i.SUB_VOLUME)
    Show_BMP                                 0x00002d61   Thumb Code   282  bmp.o(i.Show_BMP)
    SysCtlClockFreqSet                       0x00002e95   Thumb Code   706  sysctl.o(i.SysCtlClockFreqSet)
    SysCtlGPIOAHBEnable                      0x00003181   Thumb Code    20  sysctl.o(i.SysCtlGPIOAHBEnable)
    SysCtlPeripheralEnable                   0x00003199   Thumb Code    36  sysctl.o(i.SysCtlPeripheralEnable)
    TFT_CLEAR                                0x000031c1   Thumb Code    50  tft.o(i.TFT_CLEAR)
    TFT_DrawCircle                           0x000031f9   Thumb Code   138  tft.o(i.TFT_DrawCircle)
    TFT_DrawLine                             0x00003283   Thumb Code   396  tft.o(i.TFT_DrawLine)
    TFT_DrawPoint                            0x00003411   Thumb Code    30  tft.o(i.TFT_DrawPoint)
    TFT_DrawRectangle                        0x00003435   Thumb Code   102  tft.o(i.TFT_DrawRectangle)
    TFT_FillBlock                            0x0000349d   Thumb Code    66  tft.o(i.TFT_FillBlock)
    TFT_Init                                 0x000034e5   Thumb Code  1730  tft.o(i.TFT_Init)
    TFT_SetPos                               0x00003bbd   Thumb Code   134  tft.o(i.TFT_SetPos)
    TFT_ShowByte                             0x00003c4d   Thumb Code    44  tft.o(i.TFT_ShowByte)
    TFT_ShowChar                             0x00003c79   Thumb Code   110  tft.o(i.TFT_ShowChar)
    TFT_ShowName                             0x00003cf1   Thumb Code    94  tft.o(i.TFT_ShowName)
    TFT_ShowString                           0x00003d55   Thumb Code    70  tft.o(i.TFT_ShowString)
    TFT_ShowWheel                            0x00003d9b   Thumb Code   390  tft.o(i.TFT_ShowWheel)
    TOUCH_Init                               0x00003f21   Thumb Code    40  touch.o(i.TOUCH_Init)
    TOUCH_PointAdjust                        0x00003f55   Thumb Code   102  touch.o(i.TOUCH_PointAdjust)
    Timer0BIntHandler                        0x00003fbd   Thumb Code    38  timer.o(i.Timer0BIntHandler)
    TimerConfigure                           0x00003fed   Thumb Code    88  timer.o(i.TimerConfigure)
    TimerEnable                              0x0000404d   Thumb Code    14  timer.o(i.TimerEnable)
    TimerIntClear                            0x0000405b   Thumb Code     4  timer.o(i.TimerIntClear)
    TimerIntEnable                           0x0000405f   Thumb Code     8  timer.o(i.TimerIntEnable)
    TimerIntInitial                          0x00004069   Thumb Code    80  timer.o(i.TimerIntInitial)
    TimerIntRegister                         0x000040cd   Thumb Code    88  timer.o(i.TimerIntRegister)
    TimerIntStatus                           0x00004135   Thumb Code    10  timer.o(i.TimerIntStatus)
    TimerLoadSet                             0x0000413f   Thumb Code    18  timer.o(i.TimerLoadSet)
    UARTCharGet                              0x00004151   Thumb Code    12  uart.o(i.UARTCharGet)
    UARTCharPut                              0x0000415d   Thumb Code    12  uart.o(i.UARTCharPut)
    UARTConfigSetExpClk                      0x00004169   Thumb Code   110  uart.o(i.UARTConfigSetExpClk)
    UARTReceiveData                          0x000041d7   Thumb Code    38  usart.o(i.UARTReceiveData)
    UARTWriteCmd                             0x000041fd   Thumb Code    32  usart.o(i.UARTWriteCmd)
    USART0_Init                              0x0000421d   Thumb Code    56  usart.o(i.USART0_Init)
    USART6_Init                              0x00004265   Thumb Code    52  usart.o(i.USART6_Init)
    WriteCmd                                 0x000042b5   Thumb Code    24  oled_i2c.o(i.WriteCmd)
    WriteDat                                 0x00004309   Thumb Code    26  oled_i2c.o(i.WriteDat)
    _NOP                                     0x000043a5   Thumb Code    12  i2c.o(i._NOP)
    __0sprintf                               0x000043b1   Thumb Code    34  printfa.o(i.__0sprintf)
    __1sprintf                               0x000043b1   Thumb Code     0  printfa.o(i.__0sprintf)
    __2sprintf                               0x000043b1   Thumb Code     0  printfa.o(i.__0sprintf)
    __c89sprintf                             0x000043b1   Thumb Code     0  printfa.o(i.__0sprintf)
    sprintf                                  0x000043b1   Thumb Code     0  printfa.o(i.__0sprintf)
    __scatterload_copy                       0x000043d9   Thumb Code    14  handlers.o(i.__scatterload_copy)
    __scatterload_null                       0x000043e7   Thumb Code     2  handlers.o(i.__scatterload_null)
    __scatterload_zeroinit                   0x000043e9   Thumb Code    14  handlers.o(i.__scatterload_zeroinit)
    clust2sect                               0x00005101   Thumb Code    26  ff.o(i.clust2sect)
    disk_initialize                          0x000055e1   Thumb Code   352  fatfs_port_tm4c1294.o(i.disk_initialize)
    disk_ioctl                               0x0000574d   Thumb Code   420  fatfs_port_tm4c1294.o(i.disk_ioctl)
    disk_read                                0x000058f5   Thumb Code   142  fatfs_port_tm4c1294.o(i.disk_read)
    disk_status                              0x0000598d   Thumb Code    14  fatfs_port_tm4c1294.o(i.disk_status)
    disk_timerproc                           0x000059a1   Thumb Code    34  fatfs_port_tm4c1294.o(i.disk_timerproc)
    disk_write                               0x000059cd   Thumb Code   188  fatfs_port_tm4c1294.o(i.disk_write)
    f_close                                  0x00005a91   Thumb Code    22  ff.o(i.f_close)
    f_lseek                                  0x00005aa7   Thumb Code   430  ff.o(i.f_lseek)
    f_mount                                  0x00005c55   Thumb Code    38  ff.o(i.f_mount)
    f_open                                   0x00005c81   Thumb Code   350  ff.o(i.f_open)
    f_read                                   0x00005ddf   Thumb Code   458  ff.o(i.f_read)
    f_sync                                   0x00005fa9   Thumb Code   176  ff.o(i.f_sync)
    free                                     0x000060ed   Thumb Code    76  malloc.o(i.free)
    get_fat                                  0x0000613d   Thumb Code   228  ff.o(i.get_fat)
    get_fattime                              0x00006221   Thumb Code     4  fatfs_port_tm4c1294.o(i.get_fattime)
    i2c_write                                0x00006229   Thumb Code   108  i2c.o(i.i2c_write)
    kalmanFilter                             0x00006295   Thumb Code    98  kalmanfilter.o(i.kalmanFilter)
    main                                     0x00006317   Thumb Code     8  main.o(i.main)
    malloc                                   0x00006321   Thumb Code    92  malloc.o(i.malloc)
    num2char                                 0x00006415   Thumb Code   214  tft.o(i.num2char)
    pn532_read                               0x00006509   Thumb Code    54  pn532.o(i.pn532_read)
    put_fat                                  0x00006d7d   Thumb Code   310  ff.o(i.put_fat)
    pvPortMalloc                             0x00006eb5   Thumb Code   164  heap_2.o(i.pvPortMalloc)
    pvTaskIncrementMutexHeldCount            0x00006f6d   Thumb Code    26  tasks.o(i.pvTaskIncrementMutexHeldCount)
    pxPortInitialiseStack                    0x00006f8d   Thumb Code    34  port.o(i.pxPortInitialiseStack)
    setnumber                                0x00007209   Thumb Code   446  pca9557.o(i.setnumber)
    uxListRemove                             0x000074fb   Thumb Code    40  list.o(i.uxListRemove)
    uxTaskResetEventItemValue                0x00007525   Thumb Code    24  tasks.o(i.uxTaskResetEventItemValue)
    vListInitialise                          0x00007541   Thumb Code    26  list.o(i.vListInitialise)
    vListInitialiseItem                      0x0000755b   Thumb Code     6  list.o(i.vListInitialiseItem)
    vListInsert                              0x00007561   Thumb Code    52  list.o(i.vListInsert)
    vListInsertEnd                           0x00007595   Thumb Code    24  list.o(i.vListInsertEnd)
    vPortEnterCritical                       0x000075ad   Thumb Code    30  port.o(i.vPortEnterCritical)
    vPortExitCritical                        0x000075d1   Thumb Code    28  port.o(i.vPortExitCritical)
    vPortFree                                0x000075f1   Thumb Code    56  heap_2.o(i.vPortFree)
    vPortSetupTimerInterrupt                 0x00007631   Thumb Code    14  port.o(i.vPortSetupTimerInterrupt)
    vQueueAddToRegistry                      0x00007645   Thumb Code    38  queue.o(i.vQueueAddToRegistry)
    vQueueWaitForMessageRestricted           0x00007671   Thumb Code    66  queue.o(i.vQueueWaitForMessageRestricted)
    vTaskDelay                               0x000076b5   Thumb Code    84  tasks.o(i.vTaskDelay)
    vTaskMissedYield                         0x00007719   Thumb Code     8  tasks.o(i.vTaskMissedYield)
    vTaskPlaceOnEventList                    0x00007725   Thumb Code    84  tasks.o(i.vTaskPlaceOnEventList)
    vTaskPlaceOnEventListRestricted          0x00007789   Thumb Code    90  tasks.o(i.vTaskPlaceOnEventListRestricted)
    vTaskPlaceOnUnorderedEventList           0x000077f5   Thumb Code   100  tasks.o(i.vTaskPlaceOnUnorderedEventList)
    vTaskPriorityInherit                     0x00007869   Thumb Code   164  tasks.o(i.vTaskPriorityInherit)
    vTaskSetTimeOutState                     0x00007919   Thumb Code    14  tasks.o(i.vTaskSetTimeOutState)
    vTaskStartScheduler                      0x00007931   Thumb Code    86  tasks.o(i.vTaskStartScheduler)
    vTaskSuspendAll                          0x000079a1   Thumb Code    12  tasks.o(i.vTaskSuspendAll)
    vTaskSwitchContext                       0x000079b1   Thumb Code    76  tasks.o(i.vTaskSwitchContext)
    xEventGroupCreate                        0x00007a71   Thumb Code    26  event_groups.o(i.xEventGroupCreate)
    xEventGroupSetBits                       0x00007a8b   Thumb Code   146  event_groups.o(i.xEventGroupSetBits)
    xEventGroupWaitBits                      0x00007b1d   Thumb Code   194  event_groups.o(i.xEventGroupWaitBits)
    xPortStartScheduler                      0x00007be5   Thumb Code    58  port.o(i.xPortStartScheduler)
    xPortSysTickHandler                      0x00007c2d   Thumb Code    48  port.o(i.xPortSysTickHandler)
    xQueueGenericCreate                      0x00007c61   Thumb Code    74  queue.o(i.xQueueGenericCreate)
    xQueueGenericReceive                     0x00007cad   Thumb Code   318  queue.o(i.xQueueGenericReceive)
    xQueueGenericReset                       0x00007df1   Thumb Code   120  queue.o(i.xQueueGenericReset)
    xQueueGenericSend                        0x00007e6d   Thumb Code   268  queue.o(i.xQueueGenericSend)
    xQueueGenericSendFromISR                 0x00007f7d   Thumb Code   126  queue.o(i.xQueueGenericSendFromISR)
    xQueueGiveFromISR                        0x00007ffb   Thumb Code   110  queue.o(i.xQueueGiveFromISR)
    xTaskCheckForTimeOut                     0x00008069   Thumb Code    84  tasks.o(i.xTaskCheckForTimeOut)
    xTaskGenericCreate                       0x000080c5   Thumb Code   242  tasks.o(i.xTaskGenericCreate)
    xTaskGetSchedulerState                   0x000081d5   Thumb Code    24  tasks.o(i.xTaskGetSchedulerState)
    xTaskGetTickCount                        0x000081f5   Thumb Code     6  tasks.o(i.xTaskGetTickCount)
    xTaskIncrementTick                       0x00008201   Thumb Code   242  tasks.o(i.xTaskIncrementTick)
    xTaskPriorityDisinherit                  0x00008321   Thumb Code   122  tasks.o(i.xTaskPriorityDisinherit)
    xTaskRemoveFromEventList                 0x000083a5   Thumb Code   104  tasks.o(i.xTaskRemoveFromEventList)
    xTaskRemoveFromUnorderedEventList        0x00008425   Thumb Code    94  tasks.o(i.xTaskRemoveFromUnorderedEventList)
    xTaskResumeAll                           0x00008495   Thumb Code   196  tasks.o(i.xTaskResumeAll)
    xTimerCreate                             0x0000857d   Thumb Code    62  timers.o(i.xTimerCreate)
    xTimerCreateTimerTask                    0x000085bd   Thumb Code    46  timers.o(i.xTimerCreateTimerTask)
    xTimerGenericCommand                     0x000085fd   Thumb Code   102  timers.o(i.xTimerGenericCommand)
    asc2_1206                                0x00008770   Data        1140  tft.o(.constdata)
    asc2_1608                                0x00008be4   Data        1536  tft.o(.constdata)
    F6x8                                     0x00009234   Data         552  oled_i2c.o(.constdata)
    F8X16                                    0x0000945c   Data        1520  oled_i2c.o(.constdata)
    Region$$Table$$Base                      0x0000a074   Number         0  anon$$obj.o(Region$$Table)
    Region$$Table$$Limit                     0x0000a094   Number         0  anon$$obj.o(Region$$Table)
    PLAY_CMD                                 0x20000000   Data           5  control.o(.data)
    PAUSE_CMD                                0x20000005   Data           5  control.o(.data)
    NEXT_CMD                                 0x2000000a   Data           5  control.o(.data)
    PREVIOUS_CMD                             0x2000000f   Data           5  control.o(.data)
    ADD_VOLUME_CMD                           0x20000014   Data           5  control.o(.data)
    SUB_VOLUME_CMD                           0x20000019   Data           5  control.o(.data)
    PLAY_OR_PAUSE_CMD                        0x2000001e   Data           5  control.o(.data)
    STOP_CMD                                 0x20000023   Data           5  control.o(.data)
    HALF_VOLUME                              0x20000028   Data           6  control.o(.data)
    LOOP                                     0x2000002e   Data           6  control.o(.data)
    res                                      0x20000084   Data           1  bmp.o(.data)
    point                                    0x20000086   Data           8  bmp.o(.data)
    SysClock                                 0x20000114   Data           4  application.o(.data)
    idx                                      0x20000118   Data           1  application.o(.data)
    remote_code                              0x20000119   Data           4  application.o(.data)
    tcount                                   0x20000120   Data           4  application.o(.data)
    receiveComplete                          0x20000124   Data           1  application.o(.data)
    startflag                                0x20000125   Data           1  application.o(.data)
    uid                                      0x20000128   Data           4  application.o(.data)
    InfraredReceive_Handle                   0x2000012c   Data           4  application.o(.data)
    BUZZER_Handle                            0x20000130   Data           4  application.o(.data)
    Command_Handle                           0x20000134   Data           4  application.o(.data)
    Swtmr1_Handle                            0x20000138   Data           4  application.o(.data)
    kaiguan                                  0x20000140   Data         384  tft.o(.data)
    WriteData                                0x200002c4   Data           4  tft.o(.data)
    WriteCommand                             0x200002c8   Data           4  tft.o(.data)
    a                                        0x200002db   Data           2  pca9557.o(.data)
    pxCurrentTCB                             0x20000334   Data           4  tasks.o(.data)
    __microlib_freelist                      0x2000037c   Data           4  mvars.o(.data)
    __microlib_freelist_initialised          0x20000380   Data           4  mvars.o(.data)
    fs                                       0x20000b88   Data         564  bmp.o(.bss)
    fil                                      0x20000dbc   Data         548  bmp.o(.bss)
    bmp                                      0x20000fe0   Data          70  bmp.o(.bss)
    irdata                                   0x2000156c   Data          33  application.o(.bss)
    xQueueRegistry                           0x20014e38   Data          80  queue.o(.bss)
    __heap_base                              0x20015058   Data           0  startup_rvmdk.o(HEAP)
    __heap_limit                             0x20024058   Data           0  startup_rvmdk.o(HEAP)
    __initial_sp                             0x2002c058   Data           0  startup_rvmdk.o(STACK)



==============================================================================

Memory Map of the image

  Image Entry point : 0x00000289

  Load Region LR_IROM1 (Base: 0x00000000, Size: 0x0000a700, Max: 0x00100000, ABSOLUTE, COMPRESSED[0x0000a228])

    Execution Region ER_IROM1 (Exec base: 0x00000000, Load base: 0x00000000, Size: 0x0000a094, Max: 0x00100000, ABSOLUTE)

    Exec Addr    Load Addr    Size         Type   Attr      Idx    E Section Name        Object

    0x00000000   0x00000000   0x00000288   Code   RO          450    RESET               startup_rvmdk.o
    0x00000288   0x00000288   0x00000000   Code   RO         5142  * .ARM.Collect$$$$00000000  mc_w.l(entry.o)
    0x00000288   0x00000288   0x00000004   Code   RO         5466    .ARM.Collect$$$$00000001  mc_w.l(entry2.o)
    0x0000028c   0x0000028c   0x00000004   Code   RO         5469    .ARM.Collect$$$$00000004  mc_w.l(entry5.o)
    0x00000290   0x00000290   0x00000000   Code   RO         5471    .ARM.Collect$$$$00000008  mc_w.l(entry7b.o)
    0x00000290   0x00000290   0x00000000   Code   RO         5473    .ARM.Collect$$$$0000000A  mc_w.l(entry8b.o)
    0x00000290   0x00000290   0x00000008   Code   RO         5474    .ARM.Collect$$$$0000000B  mc_w.l(entry9a.o)
    0x00000298   0x00000298   0x00000000   Code   RO         5476    .ARM.Collect$$$$0000000D  mc_w.l(entry10a.o)
    0x00000298   0x00000298   0x00000000   Code   RO         5478    .ARM.Collect$$$$0000000F  mc_w.l(entry11a.o)
    0x00000298   0x00000298   0x00000004   Code   RO         5467    .ARM.Collect$$$$00002712  mc_w.l(entry2.o)
    0x0000029c   0x0000029c   0x000000b6   Code   RO         1976    .emb_text           port.o
    0x00000352   0x00000352   0x00000002   PAD
    0x00000354   0x00000354   0x00000006   Code   RO         4247    .emb_text           driverlib.lib(sysctl.o)
    0x0000035a   0x0000035a   0x00000002   PAD
    0x0000035c   0x0000035c   0x00000026   Code   RO         5132    .emb_text           driverlib.lib(cpu.o)
    0x00000382   0x00000382   0x00000024   Code   RO         5145    .text               mc_w.l(memcpya.o)
    0x000003a6   0x000003a6   0x00000024   Code   RO         5147    .text               mc_w.l(memseta.o)
    0x000003ca   0x000003ca   0x0000014e   Code   RO         5450    .text               mf_w.l(dadd.o)
    0x00000518   0x00000518   0x000000e4   Code   RO         5452    .text               mf_w.l(dmul.o)
    0x000005fc   0x000005fc   0x000000de   Code   RO         5454    .text               mf_w.l(ddiv.o)
    0x000006da   0x000006da   0x0000001a   Code   RO         5456    .text               mf_w.l(dfltui.o)
    0x000006f4   0x000006f4   0x0000003e   Code   RO         5458    .text               mf_w.l(dfixi.o)
    0x00000732   0x00000732   0x00000032   Code   RO         5460    .text               mf_w.l(dfixui.o)
    0x00000764   0x00000764   0x00000026   Code   RO         5462    .text               mf_w.l(f2d.o)
    0x0000078a   0x0000078a   0x00000038   Code   RO         5464    .text               mf_w.l(d2f.o)
    0x000007c2   0x000007c2   0x0000002c   Code   RO         5483    .text               mc_w.l(uidiv.o)
    0x000007ee   0x000007ee   0x00000062   Code   RO         5485    .text               mc_w.l(uldiv.o)
    0x00000850   0x00000850   0x0000001e   Code   RO         5487    .text               mc_w.l(llshl.o)
    0x0000086e   0x0000086e   0x00000020   Code   RO         5489    .text               mc_w.l(llushr.o)
    0x0000088e   0x0000088e   0x00000024   Code   RO         5491    .text               mc_w.l(llsshr.o)
    0x000008b2   0x000008b2   0x00000000   Code   RO         5495    .text               mc_w.l(iusefp.o)
    0x000008b2   0x000008b2   0x0000006e   Code   RO         5496    .text               mf_w.l(fepilogue.o)
    0x00000920   0x00000920   0x000000ba   Code   RO         5498    .text               mf_w.l(depilogue.o)
    0x000009da   0x000009da   0x00000030   Code   RO         5500    .text               mf_w.l(dfixul.o)
    0x00000a0a   0x00000a0a   0x00000002   PAD
    0x00000a0c   0x00000a0c   0x00000030   Code   RO         5502    .text               mf_w.l(cdrcmple.o)
    0x00000a3c   0x00000a3c   0x00000024   Code   RO         5504    .text               mc_w.l(init.o)
    0x00000a60   0x00000a60   0x0000005e   Code   RO         5516    .text               mc_w.l(__dclz77c.o)
    0x00000abe   0x00000abe   0x0000007e   Code   RO         1137    i.ACCELERATOR_Init  accelerator.o
    0x00000b3c   0x00000b3c   0x0000012a   Code   RO         1138    i.ACCELERATOR_Read  accelerator.o
    0x00000c66   0x00000c66   0x00000002   PAD
    0x00000c68   0x00000c68   0x0000008c   Code   RO         1188    i.ADC0_Init         adc.o
    0x00000cf4   0x00000cf4   0x00000070   Code   RO         1189    i.ADC0_Read         adc.o
    0x00000d64   0x00000d64   0x0000000a   Code   RO         2753    i.ADCIntClear       driverlib.lib(adc.o)
    0x00000d6e   0x00000d6e   0x00000034   Code   RO         2760    i.ADCIntStatus      driverlib.lib(adc.o)
    0x00000da2   0x00000da2   0x0000001a   Code   RO         2765    i.ADCProcessorTrigger  driverlib.lib(adc.o)
    0x00000dbc   0x00000dbc   0x000001d8   Code   RO          369    i.ADCRead           application.o
    0x00000f94   0x00000f94   0x00000060   Code   RO         2768    i.ADCSequenceConfigure  driverlib.lib(adc.o)
    0x00000ff4   0x00000ff4   0x00000024   Code   RO         2771    i.ADCSequenceDataGet  driverlib.lib(adc.o)
    0x00001018   0x00001018   0x0000000e   Code   RO         2773    i.ADCSequenceEnable  driverlib.lib(adc.o)
    0x00001026   0x00001026   0x0000009a   Code   RO         2776    i.ADCSequenceStepConfigure  driverlib.lib(adc.o)
    0x000010c0   0x000010c0   0x00000018   Code   RO          193    i.ADD_VOLUME        control.o
    0x000010d8   0x000010d8   0x00000024   Code   RO          370    i.BEEZZERBeep       application.o
    0x000010fc   0x000010fc   0x00000040   Code   RO          371    i.BMPDisplay        application.o
    0x0000113c   0x0000113c   0x00000110   Code   RO          372    i.BSP_Init          application.o
    0x0000124c   0x0000124c   0x00000050   Code   RO          891    i.BUZZER_Beep       buzzer.o
    0x0000129c   0x0000129c   0x00000028   Code   RO          893    i.BUZZER_Init       buzzer.o
    0x000012c4   0x000012c4   0x000000d0   Code   RO          680    i.Button_Reconize   touch.o
    0x00001394   0x00001394   0x00000070   Code   RO          373    i.Command_Control   application.o
    0x00001404   0x00001404   0x00000018   Code   RO         1008    i.DESELECT          fatfs_port_tm4c1294.o
    0x0000141c   0x0000141c   0x00000044   Code   RO          374    i.DIGITALTube       application.o
    0x00001460   0x00001460   0x00000018   Code   RO         1498    i.Delay5us          i2c.o
    0x00001478   0x00001478   0x00000004   Code   RO         3020    i.EPIAddressMapSet  driverlib.lib(epi.o)
    0x0000147c   0x0000147c   0x00000020   Code   RO         3023    i.EPIConfigHB16Set  driverlib.lib(epi.o)
    0x0000149c   0x0000149c   0x000000f8   Code   RO          761    i.EPIGPIOinit       epiinit.o
    0x00001594   0x00001594   0x00000004   Code   RO         3040    i.EPIModeSet        driverlib.lib(epi.o)
    0x00001598   0x00001598   0x00000010   Code   RO         3273    i.FPUEnable         driverlib.lib(fpu.o)
    0x000015a8   0x000015a8   0x00000010   Code   RO         3276    i.FPULazyStackingEnable  driverlib.lib(fpu.o)
    0x000015b8   0x000015b8   0x000001c8   Code   RO          375    i.FreeRTOS_Init     application.o
    0x00001780   0x00001780   0x0000000e   Code   RO          376    i.GETPoint          application.o
    0x0000178e   0x0000178e   0x00000028   Code   RO         3343    i.GPIODirModeSet    driverlib.lib(gpio.o)
    0x000017b6   0x000017b6   0x00000006   Code   RO         3344    i.GPIOIntClear      driverlib.lib(gpio.o)
    0x000017bc   0x000017bc   0x0000000c   Code   RO         3346    i.GPIOIntEnable     driverlib.lib(gpio.o)
    0x000017c8   0x000017c8   0x0000001a   Code   RO         3347    i.GPIOIntRegister   driverlib.lib(gpio.o)
    0x000017e2   0x000017e2   0x00000050   Code   RO         3351    i.GPIOIntTypeSet    driverlib.lib(gpio.o)
    0x00001832   0x00001832   0x00000002   PAD
    0x00001834   0x00001834   0x00000090   Code   RO          730    i.GPION_IRQ         infrared.o
    0x000018c4   0x000018c4   0x00000138   Code   RO         3355    i.GPIOPadConfigSet  driverlib.lib(gpio.o)
    0x000019fc   0x000019fc   0x00000044   Code   RO         3356    i.GPIOPinConfigure  driverlib.lib(gpio.o)
    0x00001a40   0x00001a40   0x00000006   Code   RO         3357    i.GPIOPinRead       driverlib.lib(gpio.o)
    0x00001a46   0x00001a46   0x0000001c   Code   RO         3358    i.GPIOPinTypeADC    driverlib.lib(gpio.o)
    0x00001a62   0x00001a62   0x0000001c   Code   RO         3363    i.GPIOPinTypeEPI    driverlib.lib(gpio.o)
    0x00001a7e   0x00001a7e   0x0000001c   Code   RO         3366    i.GPIOPinTypeGPIOInput  driverlib.lib(gpio.o)
    0x00001a9a   0x00001a9a   0x0000001c   Code   RO         3367    i.GPIOPinTypeGPIOOutput  driverlib.lib(gpio.o)
    0x00001ab6   0x00001ab6   0x0000001c   Code   RO         3370    i.GPIOPinTypeI2C    driverlib.lib(gpio.o)
    0x00001ad2   0x00001ad2   0x0000001c   Code   RO         3371    i.GPIOPinTypeI2CSCL  driverlib.lib(gpio.o)
    0x00001aee   0x00001aee   0x0000001c   Code   RO         3376    i.GPIOPinTypeSSI    driverlib.lib(gpio.o)
    0x00001b0a   0x00001b0a   0x0000001c   Code   RO         3379    i.GPIOPinTypeUART   driverlib.lib(gpio.o)
    0x00001b26   0x00001b26   0x00000006   Code   RO         3385    i.GPIOPinWrite      driverlib.lib(gpio.o)
    0x00001b2c   0x00001b2c   0x00000154   Code   RO          681    i.Get_Point         touch.o
    0x00001c80   0x00001c80   0x000000cc   Code   RO          377    i.GravityBall       application.o
    0x00001d4c   0x00001d4c   0x0000002c   Code   RO         1254    i.I2C0DeviceInit    pca9557.o
    0x00001d78   0x00001d78   0x00000044   Code   RO         1499    i.I2C0GPIOBEnable   i2c.o
    0x00001dbc   0x00001dbc   0x00000028   Code   RO         1255    i.I2C0MasterInit    pca9557.o
    0x00001de4   0x00001de4   0x00000040   Code   RO         1256    i.I2C0PinConfig     pca9557.o
    0x00001e24   0x00001e24   0x000000ec   Code   RO         1257    i.I2C0Send          pca9557.o
    0x00001f10   0x00001f10   0x00000020   Code   RO         1258    i.I2C0TubeHighSet   pca9557.o
    0x00001f30   0x00001f30   0x00000020   Code   RO         1259    i.I2C0TubeLowSet    pca9557.o
    0x00001f50   0x00001f50   0x00000020   Code   RO         1260    i.I2C0TubeSelSet    pca9557.o
    0x00001f70   0x00001f70   0x00000028   Code   RO         1355    i.I2C3MasterInit    oled_i2c.o
    0x00001f98   0x00001f98   0x00000040   Code   RO         1356    i.I2C3PinConfig     oled_i2c.o
    0x00001fd8   0x00001fd8   0x000000ec   Code   RO         1357    i.I2C3Send          oled_i2c.o
    0x000020c4   0x000020c4   0x0000000c   Code   RO         3656    i.I2CMasterBusy     driverlib.lib(i2c.o)
    0x000020d0   0x000020d0   0x00000004   Code   RO         3657    i.I2CMasterControl  driverlib.lib(i2c.o)
    0x000020d4   0x000020d4   0x00000004   Code   RO         3659    i.I2CMasterDataPut  driverlib.lib(i2c.o)
    0x000020d8   0x000020d8   0x0000000a   Code   RO         3661    i.I2CMasterEnable   driverlib.lib(i2c.o)
    0x000020e2   0x000020e2   0x00000018   Code   RO         3662    i.I2CMasterErr      driverlib.lib(i2c.o)
    0x000020fa   0x000020fa   0x00000002   PAD
    0x000020fc   0x000020fc   0x00000054   Code   RO         3664    i.I2CMasterInitExpClk  driverlib.lib(i2c.o)
    0x00002150   0x00002150   0x00000008   Code   RO         3674    i.I2CMasterSlaveAddrSet  driverlib.lib(i2c.o)
    0x00002158   0x00002158   0x00000014   Code   RO         1140    i.I2CRead           accelerator.o
    0x0000216c   0x0000216c   0x00000040   Code   RO         1141    i.I2CSend           accelerator.o
    0x000021ac   0x000021ac   0x00000010   Code   RO         3684    i.I2CSlaveEnable    driverlib.lib(i2c.o)
    0x000021bc   0x000021bc   0x00000048   Code   RO         1500    i.I2C_GetACK        i2c.o
    0x00002204   0x00002204   0x0000005c   Code   RO         1502    i.I2C_RxByte        i2c.o
    0x00002260   0x00002260   0x00000040   Code   RO         1503    i.I2C_START         i2c.o
    0x000022a0   0x000022a0   0x00000048   Code   RO         1504    i.I2C_STOP          i2c.o
    0x000022e8   0x000022e8   0x00000020   Code   RO         1505    i.I2C_SetNAk        i2c.o
    0x00002308   0x00002308   0x0000001c   Code   RO         1506    i.I2C_Set_scl_high  i2c.o
    0x00002324   0x00002324   0x0000001c   Code   RO         1507    i.I2C_Set_scl_low   i2c.o
    0x00002340   0x00002340   0x0000001c   Code   RO         1508    i.I2C_Set_sda_high  i2c.o
    0x0000235c   0x0000235c   0x0000001c   Code   RO         1509    i.I2C_Set_sda_low   i2c.o
    0x00002378   0x00002378   0x0000004c   Code   RO         1510    i.I2C_TxByte        i2c.o
    0x000023c4   0x000023c4   0x00000084   Code   RO          378    i.INFRARED          application.o
    0x00002448   0x00002448   0x0000005c   Code   RO          731    i.INFRARED_Init     infrared.o
    0x000024a4   0x000024a4   0x000000e4   Code   RO          455    i.InitGPIOLCDInterface  tft.o
    0x00002588   0x00002588   0x00000064   Code   RO         3983    i.IntEnable         driverlib.lib(interrupt.o)
    0x000025ec   0x000025ec   0x0000000e   Code   RO         3986    i.IntMasterEnable   driverlib.lib(interrupt.o)
    0x000025fa   0x000025fa   0x00000002   PAD
    0x000025fc   0x000025fc   0x00000028   Code   RO         3994    i.IntPrioritySet    driverlib.lib(interrupt.o)
    0x00002624   0x00002624   0x00000034   Code   RO         3995    i.IntRegister       driverlib.lib(interrupt.o)
    0x00002658   0x00002658   0x00000068   Code   RO          732    i.Ir_Server         infrared.o
    0x000026c0   0x000026c0   0x00000026   Code   RO          379    i.LEDTask           application.o
    0x000026e6   0x000026e6   0x00000002   PAD
    0x000026e8   0x000026e8   0x00000020   Code   RO          380    i.LED_BLINK         application.o
    0x00002708   0x00002708   0x00000084   Code   RO          776    i.LED_Close         led.o
    0x0000278c   0x0000278c   0x0000004c   Code   RO          777    i.LED_Init          led.o
    0x000027d8   0x000027d8   0x00000084   Code   RO          778    i.LED_Open          led.o
    0x0000285c   0x0000285c   0x00000018   Code   RO          194    i.NEXT              control.o
    0x00002874   0x00002874   0x0000000a   Code   RO         1358    i.OLED_CLS          oled_i2c.o
    0x0000287e   0x0000287e   0x0000003a   Code   RO         1360    i.OLED_Fill         oled_i2c.o
    0x000028b8   0x000028b8   0x000000c4   Code   RO         1361    i.OLED_Init         oled_i2c.o
    0x0000297c   0x0000297c   0x00000028   Code   RO         1364    i.OLED_SetPos       oled_i2c.o
    0x000029a4   0x000029a4   0x000000ec   Code   RO         1366    i.OLED_ShowStr      oled_i2c.o
    0x00002a90   0x00002a90   0x0000001c   Code   RO         1261    i.PCA9557_Init      pca9557.o
    0x00002aac   0x00002aac   0x00000018   Code   RO          197    i.PLAYER_Init       control.o
    0x00002ac4   0x00002ac4   0x00000018   Code   RO          198    i.PLAY_OR_PAUSE     control.o
    0x00002adc   0x00002adc   0x00000054   Code   RO         1453    i.PN532_Active      pn532.o
    0x00002b30   0x00002b30   0x00000018   Code   RO         1454    i.PN532_Clearbuffer  pn532.o
    0x00002b48   0x00002b48   0x00000008   Code   RO         1455    i.PN532_Init        pn532.o
    0x00002b50   0x00002b50   0x0000001e   Code   RO         1456    i.PN532_Readuid     pn532.o
    0x00002b6e   0x00002b6e   0x00000002   PAD
    0x00002b70   0x00002b70   0x00000018   Code   RO          199    i.PREVIOUS          control.o
    0x00002b88   0x00002b88   0x0000001a   Code   RO          276    i.RGB888ToBGR565    bmp.o
    0x00002ba2   0x00002ba2   0x0000000a   Code   RO          381    i.SDTicket          application.o
    0x00002bac   0x00002bac   0x00000018   Code   RO         1009    i.SELECT            fatfs_port_tm4c1294.o
    0x00002bc4   0x00002bc4   0x00000030   Code   RO          200    i.SET_VOLUME        control.o
    0x00002bf4   0x00002bf4   0x0000006a   Code   RO         1511    i.SINGLE_read       i2c.o
    0x00002c5e   0x00002c5e   0x0000003a   Code   RO         4103    i.SSIConfigSetExpClk  driverlib.lib(ssi.o)
    0x00002c98   0x00002c98   0x0000000e   Code   RO         4106    i.SSIDataGet        driverlib.lib(ssi.o)
    0x00002ca6   0x00002ca6   0x00000014   Code   RO         4107    i.SSIDataGetNonBlocking  driverlib.lib(ssi.o)
    0x00002cba   0x00002cba   0x0000000c   Code   RO         4108    i.SSIDataPut        driverlib.lib(ssi.o)
    0x00002cc6   0x00002cc6   0x0000000a   Code   RO         4111    i.SSIEnable         driverlib.lib(ssi.o)
    0x00002cd0   0x00002cd0   0x00000078   Code   RO          682    i.SSIinit           touch.o
    0x00002d48   0x00002d48   0x00000018   Code   RO          202    i.SUB_VOLUME        control.o
    0x00002d60   0x00002d60   0x00000134   Code   RO          278    i.Show_BMP          bmp.o
    0x00002e94   0x00002e94   0x000002ec   Code   RO         4249    i.SysCtlClockFreqSet  driverlib.lib(sysctl.o)
    0x00003180   0x00003180   0x00000018   Code   RO         4260    i.SysCtlGPIOAHBEnable  driverlib.lib(sysctl.o)
    0x00003198   0x00003198   0x00000028   Code   RO         4281    i.SysCtlPeripheralEnable  driverlib.lib(sysctl.o)
    0x000031c0   0x000031c0   0x00000038   Code   RO          459    i.TFT_CLEAR         tft.o
    0x000031f8   0x000031f8   0x0000008a   Code   RO          460    i.TFT_DrawCircle    tft.o
    0x00003282   0x00003282   0x0000018c   Code   RO          462    i.TFT_DrawLine      tft.o
    0x0000340e   0x0000340e   0x00000002   PAD
    0x00003410   0x00003410   0x00000024   Code   RO          463    i.TFT_DrawPoint     tft.o
    0x00003434   0x00003434   0x00000066   Code   RO          464    i.TFT_DrawRectangle  tft.o
    0x0000349a   0x0000349a   0x00000002   PAD
    0x0000349c   0x0000349c   0x00000048   Code   RO          466    i.TFT_FillBlock     tft.o
    0x000034e4   0x000034e4   0x000006d8   Code   RO          467    i.TFT_Init          tft.o
    0x00003bbc   0x00003bbc   0x00000090   Code   RO          469    i.TFT_SetPos        tft.o
    0x00003c4c   0x00003c4c   0x0000002c   Code   RO          470    i.TFT_ShowByte      tft.o
    0x00003c78   0x00003c78   0x00000078   Code   RO          471    i.TFT_ShowChar      tft.o
    0x00003cf0   0x00003cf0   0x00000064   Code   RO          473    i.TFT_ShowName      tft.o
    0x00003d54   0x00003d54   0x00000046   Code   RO          475    i.TFT_ShowString    tft.o
    0x00003d9a   0x00003d9a   0x00000186   Code   RO          476    i.TFT_ShowWheel     tft.o
    0x00003f20   0x00003f20   0x00000034   Code   RO          683    i.TOUCH_Init        touch.o
    0x00003f54   0x00003f54   0x00000066   Code   RO          684    i.TOUCH_PointAdjust  touch.o
    0x00003fba   0x00003fba   0x00000002   PAD
    0x00003fbc   0x00003fbc   0x00000030   Code   RO          815    i.Timer0BIntHandler  timer.o
    0x00003fec   0x00003fec   0x00000060   Code   RO         4599    i.TimerConfigure    driverlib.lib(timer.o)
    0x0000404c   0x0000404c   0x0000000e   Code   RO         4608    i.TimerEnable       driverlib.lib(timer.o)
    0x0000405a   0x0000405a   0x00000004   Code   RO         4609    i.TimerIntClear     driverlib.lib(timer.o)
    0x0000405e   0x0000405e   0x00000008   Code   RO         4611    i.TimerIntEnable    driverlib.lib(timer.o)
    0x00004066   0x00004066   0x00000002   PAD
    0x00004068   0x00004068   0x00000064   Code   RO          816    i.TimerIntInitial   timer.o
    0x000040cc   0x000040cc   0x00000068   Code   RO         4612    i.TimerIntRegister  driverlib.lib(timer.o)
    0x00004134   0x00004134   0x0000000a   Code   RO         4613    i.TimerIntStatus    driverlib.lib(timer.o)
    0x0000413e   0x0000413e   0x00000012   Code   RO         4617    i.TimerLoadSet      driverlib.lib(timer.o)
    0x00004150   0x00004150   0x0000000c   Code   RO         4843    i.UARTCharGet       driverlib.lib(uart.o)
    0x0000415c   0x0000415c   0x0000000c   Code   RO         4845    i.UARTCharPut       driverlib.lib(uart.o)
    0x00004168   0x00004168   0x0000006e   Code   RO         4851    i.UARTConfigSetExpClk  driverlib.lib(uart.o)
    0x000041d6   0x000041d6   0x00000026   Code   RO          646    i.UARTReceiveData   usart.o
    0x000041fc   0x000041fc   0x00000020   Code   RO          647    i.UARTWriteCmd      usart.o
    0x0000421c   0x0000421c   0x00000048   Code   RO          648    i.USART0_Init       usart.o
    0x00004264   0x00004264   0x00000050   Code   RO          649    i.USART6_Init       usart.o
    0x000042b4   0x000042b4   0x00000018   Code   RO         1367    i.WriteCmd          oled_i2c.o
    0x000042cc   0x000042cc   0x0000003c   Code   RO          477    i.WriteCommandGPIO  tft.o
    0x00004308   0x00004308   0x00000020   Code   RO         1368    i.WriteDat          oled_i2c.o
    0x00004328   0x00004328   0x0000002c   Code   RO          478    i.WriteDataGPIO     tft.o
    0x00004354   0x00004354   0x00000050   Code   RO         3386    i._GPIOIntNumberGet  driverlib.lib(gpio.o)
    0x000043a4   0x000043a4   0x0000000c   Code   RO         1512    i._NOP              i2c.o
    0x000043b0   0x000043b0   0x00000028   Code   RO         5396    i.__0sprintf        mc_w.l(printfa.o)
    0x000043d8   0x000043d8   0x0000000e   Code   RO         5510    i.__scatterload_copy  mc_w.l(handlers.o)
    0x000043e6   0x000043e6   0x00000002   Code   RO         5511    i.__scatterload_null  mc_w.l(handlers.o)
    0x000043e8   0x000043e8   0x0000000e   Code   RO         5512    i.__scatterload_zeroinit  mc_w.l(handlers.o)
    0x000043f6   0x000043f6   0x00000002   PAD
    0x000043f8   0x000043f8   0x00000184   Code   RO         5401    i._fp_digits        mc_w.l(printfa.o)
    0x0000457c   0x0000457c   0x000006dc   Code   RO         5402    i._printf_core      mc_w.l(printfa.o)
    0x00004c58   0x00004c58   0x00000024   Code   RO         5403    i._printf_post_padding  mc_w.l(printfa.o)
    0x00004c7c   0x00004c7c   0x0000002e   Code   RO         5404    i._printf_pre_padding  mc_w.l(printfa.o)
    0x00004caa   0x00004caa   0x0000000a   Code   RO         5406    i._sputc            mc_w.l(printfa.o)
    0x00004cb4   0x00004cb4   0x00000090   Code   RO         1623    i.check_fs          ff.o
    0x00004d44   0x00004d44   0x00000014   Code   RO         1624    i.chk_chr           ff.o
    0x00004d58   0x00004d58   0x0000039c   Code   RO         1625    i.chk_mounted       ff.o
    0x000050f4   0x000050f4   0x0000000c   Code   RO         1010    i.chk_power         fatfs_port_tm4c1294.o
    0x00005100   0x00005100   0x0000001a   Code   RO         1626    i.clust2sect        ff.o
    0x0000511a   0x0000511a   0x000000ca   Code   RO         1627    i.create_chain      ff.o
    0x000051e4   0x000051e4   0x00000160   Code   RO         1628    i.create_name       ff.o
    0x00005344   0x00005344   0x00000056   Code   RO         1629    i.dir_alloc         ff.o
    0x0000539a   0x0000539a   0x0000005c   Code   RO         1630    i.dir_find          ff.o
    0x000053f6   0x000053f6   0x00000114   Code   RO         1631    i.dir_next          ff.o
    0x0000550a   0x0000550a   0x0000003a   Code   RO         1633    i.dir_register      ff.o
    0x00005544   0x00005544   0x0000009c   Code   RO         1635    i.dir_sdi           ff.o
    0x000055e0   0x000055e0   0x0000016c   Code   RO         1011    i.disk_initialize   fatfs_port_tm4c1294.o
    0x0000574c   0x0000574c   0x000001a8   Code   RO         1012    i.disk_ioctl        fatfs_port_tm4c1294.o
    0x000058f4   0x000058f4   0x00000098   Code   RO         1013    i.disk_read         fatfs_port_tm4c1294.o
    0x0000598c   0x0000598c   0x00000014   Code   RO         1014    i.disk_status       fatfs_port_tm4c1294.o
    0x000059a0   0x000059a0   0x0000002c   Code   RO         1015    i.disk_timerproc    fatfs_port_tm4c1294.o
    0x000059cc   0x000059cc   0x000000c4   Code   RO         1016    i.disk_write        fatfs_port_tm4c1294.o
    0x00005a90   0x00005a90   0x00000016   Code   RO         1637    i.f_close           ff.o
    0x00005aa6   0x00005aa6   0x000001ae   Code   RO         1639    i.f_lseek           ff.o
    0x00005c54   0x00005c54   0x0000002c   Code   RO         1642    i.f_mount           ff.o
    0x00005c80   0x00005c80   0x0000015e   Code   RO         1643    i.f_open            ff.o
    0x00005dde   0x00005dde   0x000001ca   Code   RO         1645    i.f_read            ff.o
    0x00005fa8   0x00005fa8   0x000000b0   Code   RO         1649    i.f_sync            ff.o
    0x00006058   0x00006058   0x00000092   Code   RO         1654    i.follow_path       ff.o
    0x000060ea   0x000060ea   0x00000002   PAD
    0x000060ec   0x000060ec   0x00000050   Code   RO         5422    i.free              mc_w.l(malloc.o)
    0x0000613c   0x0000613c   0x000000e4   Code   RO         1655    i.get_fat           ff.o
    0x00006220   0x00006220   0x00000008   Code   RO         1017    i.get_fattime       fatfs_port_tm4c1294.o
    0x00006228   0x00006228   0x0000006c   Code   RO         1514    i.i2c_write         i2c.o
    0x00006294   0x00006294   0x00000062   Code   RO          263    i.kalmanFilter      kalmanfilter.o
    0x000062f6   0x000062f6   0x00000020   Code   RO         1657    i.ld_clust          ff.o
    0x00006316   0x00006316   0x00000008   Code   RO            1    i.main              main.o
    0x0000631e   0x0000631e   0x00000002   PAD
    0x00006320   0x00006320   0x0000006c   Code   RO         5423    i.malloc            mc_w.l(malloc.o)
    0x0000638c   0x0000638c   0x00000026   Code   RO         1658    i.mem_cmp           ff.o
    0x000063b2   0x000063b2   0x0000001a   Code   RO         1659    i.mem_cpy           ff.o
    0x000063cc   0x000063cc   0x00000014   Code   RO         1660    i.mem_set           ff.o
    0x000063e0   0x000063e0   0x00000032   Code   RO         1661    i.move_window       ff.o
    0x00006412   0x00006412   0x00000002   PAD
    0x00006414   0x00006414   0x000000f4   Code   RO          479    i.num2char          tft.o
    0x00006508   0x00006508   0x00000044   Code   RO         1457    i.pn532_read        pn532.o
    0x0000654c   0x0000654c   0x0000000c   Code   RO         1018    i.power_off         fatfs_port_tm4c1294.o
    0x00006558   0x00006558   0x00000114   Code   RO         1019    i.power_on          fatfs_port_tm4c1294.o
    0x0000666c   0x0000666c   0x00000054   Code   RO         2243    i.prvAddCurrentTaskToDelayedList  tasks.o
    0x000066c0   0x000066c0   0x00000042   Code   RO         2244    i.prvAllocateTCBAndStack  tasks.o
    0x00006702   0x00006702   0x00000002   PAD
    0x00006704   0x00006704   0x00000064   Code   RO         2573    i.prvCheckForValidListAndQueue  timers.o
    0x00006768   0x00006768   0x00000064   Code   RO         2245    i.prvCheckTasksWaitingTermination  tasks.o
    0x000067cc   0x000067cc   0x0000002a   Code   RO         2044    i.prvCopyDataFromQueue  queue.o
    0x000067f6   0x000067f6   0x00000080   Code   RO         2045    i.prvCopyDataToQueue  queue.o
    0x00006876   0x00006876   0x00000012   Code   RO         2246    i.prvDeleteTCB      tasks.o
    0x00006888   0x00006888   0x00000028   Code   RO         2574    i.prvGetNextExpireTime  timers.o
    0x000068b0   0x000068b0   0x00000038   Code   RO         1899    i.prvHeapInit       heap_2.o
    0x000068e8   0x000068e8   0x00000008   Code   RO         2247    i.prvIdleTask       tasks.o
    0x000068f0   0x000068f0   0x00000062   Code   RO         2248    i.prvInitialiseTCBVariables  tasks.o
    0x00006952   0x00006952   0x00000002   PAD
    0x00006954   0x00006954   0x00000068   Code   RO         2249    i.prvInitialiseTaskLists  tasks.o
    0x000069bc   0x000069bc   0x00000058   Code   RO         2575    i.prvInsertTimerInActiveList  timers.o
    0x00006a14   0x00006a14   0x0000001a   Code   RO         2046    i.prvIsQueueEmpty   queue.o
    0x00006a2e   0x00006a2e   0x0000001e   Code   RO         2047    i.prvIsQueueFull    queue.o
    0x00006a4c   0x00006a4c   0x0000004c   Code   RO         2576    i.prvProcessExpiredTimer  timers.o
    0x00006a98   0x00006a98   0x000000c0   Code   RO         2577    i.prvProcessReceivedCommands  timers.o
    0x00006b58   0x00006b58   0x00000074   Code   RO         2578    i.prvProcessTimerOrBlockTask  timers.o
    0x00006bcc   0x00006bcc   0x00000034   Code   RO         2251    i.prvResetNextTaskUnblockTime  tasks.o
    0x00006c00   0x00006c00   0x0000002c   Code   RO         2579    i.prvSampleTimeNow  timers.o
    0x00006c2c   0x00006c2c   0x00000084   Code   RO         2580    i.prvSwitchTimerLists  timers.o
    0x00006cb0   0x00006cb0   0x00000016   Code   RO         1977    i.prvTaskExitError  port.o
    0x00006cc6   0x00006cc6   0x0000001e   Code   RO         2668    i.prvTestWaitCondition  event_groups.o
    0x00006ce4   0x00006ce4   0x0000001a   Code   RO         2581    i.prvTimerTask      timers.o
    0x00006cfe   0x00006cfe   0x0000007e   Code   RO         2048    i.prvUnlockQueue    queue.o
    0x00006d7c   0x00006d7c   0x00000136   Code   RO         1662    i.put_fat           ff.o
    0x00006eb2   0x00006eb2   0x00000002   PAD
    0x00006eb4   0x00006eb4   0x000000b8   Code   RO         1900    i.pvPortMalloc      heap_2.o
    0x00006f6c   0x00006f6c   0x00000020   Code   RO         2254    i.pvTaskIncrementMutexHeldCount  tasks.o
    0x00006f8c   0x00006f8c   0x00000028   Code   RO         1978    i.pxPortInitialiseStack  port.o
    0x00006fb4   0x00006fb4   0x00000050   Code   RO         1020    i.rcvr_datablock    fatfs_port_tm4c1294.o
    0x00007004   0x00007004   0x00000028   Code   RO         1021    i.rcvr_spi          fatfs_port_tm4c1294.o
    0x0000702c   0x0000702c   0x0000000c   Code   RO         1022    i.rcvr_spi_m        fatfs_port_tm4c1294.o
    0x00007038   0x00007038   0x00000068   Code   RO         1663    i.remove_chain      ff.o
    0x000070a0   0x000070a0   0x00000070   Code   RO         1023    i.send_cmd          fatfs_port_tm4c1294.o
    0x00007110   0x00007110   0x00000042   Code   RO         1024    i.send_cmd12        fatfs_port_tm4c1294.o
    0x00007152   0x00007152   0x00000002   PAD
    0x00007154   0x00007154   0x00000064   Code   RO         1025    i.send_initial_clock_train  fatfs_port_tm4c1294.o
    0x000071b8   0x000071b8   0x00000050   Code   RO         1026    i.set_max_speed     fatfs_port_tm4c1294.o
    0x00007208   0x00007208   0x000001c8   Code   RO         1263    i.setnumber         pca9557.o
    0x000073d0   0x000073d0   0x00000010   Code   RO         1664    i.st_clust          ff.o
    0x000073e0   0x000073e0   0x000000c8   Code   RO         1665    i.sync_fs           ff.o
    0x000074a8   0x000074a8   0x00000052   Code   RO         1666    i.sync_window       ff.o
    0x000074fa   0x000074fa   0x00000028   Code   RO         1940    i.uxListRemove      list.o
    0x00007522   0x00007522   0x00000002   PAD
    0x00007524   0x00007524   0x0000001c   Code   RO         2262    i.uxTaskResetEventItemValue  tasks.o
    0x00007540   0x00007540   0x0000001a   Code   RO         1941    i.vListInitialise   list.o
    0x0000755a   0x0000755a   0x00000006   Code   RO         1942    i.vListInitialiseItem  list.o
    0x00007560   0x00007560   0x00000034   Code   RO         1943    i.vListInsert       list.o
    0x00007594   0x00007594   0x00000018   Code   RO         1944    i.vListInsertEnd    list.o
    0x000075ac   0x000075ac   0x00000024   Code   RO         1980    i.vPortEnterCritical  port.o
    0x000075d0   0x000075d0   0x00000020   Code   RO         1981    i.vPortExitCritical  port.o
    0x000075f0   0x000075f0   0x00000040   Code   RO         1901    i.vPortFree         heap_2.o
    0x00007630   0x00007630   0x00000014   Code   RO         1982    i.vPortSetupTimerInterrupt  port.o
    0x00007644   0x00007644   0x0000002c   Code   RO         2054    i.vQueueAddToRegistry  queue.o
    0x00007670   0x00007670   0x00000042   Code   RO         2058    i.vQueueWaitForMessageRestricted  queue.o
    0x000076b2   0x000076b2   0x00000002   PAD
    0x000076b4   0x000076b4   0x00000064   Code   RO         2263    i.vTaskDelay        tasks.o
    0x00007718   0x00007718   0x0000000c   Code   RO         2267    i.vTaskMissedYield  tasks.o
    0x00007724   0x00007724   0x00000064   Code   RO         2269    i.vTaskPlaceOnEventList  tasks.o
    0x00007788   0x00007788   0x0000006c   Code   RO         2270    i.vTaskPlaceOnEventListRestricted  tasks.o
    0x000077f4   0x000077f4   0x00000074   Code   RO         2271    i.vTaskPlaceOnUnorderedEventList  tasks.o
    0x00007868   0x00007868   0x000000b0   Code   RO         2272    i.vTaskPriorityInherit  tasks.o
    0x00007918   0x00007918   0x00000018   Code   RO         2276    i.vTaskSetTimeOutState  tasks.o
    0x00007930   0x00007930   0x00000070   Code   RO         2277    i.vTaskStartScheduler  tasks.o
    0x000079a0   0x000079a0   0x00000010   Code   RO         2279    i.vTaskSuspendAll   tasks.o
    0x000079b0   0x000079b0   0x00000060   Code   RO         2280    i.vTaskSwitchContext  tasks.o
    0x00007a10   0x00007a10   0x00000036   Code   RO         1667    i.validate          ff.o
    0x00007a46   0x00007a46   0x00000002   PAD
    0x00007a48   0x00007a48   0x00000028   Code   RO         1027    i.wait_ready        fatfs_port_tm4c1294.o
    0x00007a70   0x00007a70   0x0000001a   Code   RO         2674    i.xEventGroupCreate  event_groups.o
    0x00007a8a   0x00007a8a   0x00000092   Code   RO         2676    i.xEventGroupSetBits  event_groups.o
    0x00007b1c   0x00007b1c   0x000000c8   Code   RO         2678    i.xEventGroupWaitBits  event_groups.o
    0x00007be4   0x00007be4   0x00000048   Code   RO         1983    i.xPortStartScheduler  port.o
    0x00007c2c   0x00007c2c   0x00000034   Code   RO         1984    i.xPortSysTickHandler  port.o
    0x00007c60   0x00007c60   0x0000004a   Code   RO         2062    i.xQueueGenericCreate  queue.o
    0x00007caa   0x00007caa   0x00000002   PAD
    0x00007cac   0x00007cac   0x00000144   Code   RO         2063    i.xQueueGenericReceive  queue.o
    0x00007df0   0x00007df0   0x0000007c   Code   RO         2064    i.xQueueGenericReset  queue.o
    0x00007e6c   0x00007e6c   0x00000110   Code   RO         2065    i.xQueueGenericSend  queue.o
    0x00007f7c   0x00007f7c   0x0000007e   Code   RO         2066    i.xQueueGenericSendFromISR  queue.o
    0x00007ffa   0x00007ffa   0x0000006e   Code   RO         2067    i.xQueueGiveFromISR  queue.o
    0x00008068   0x00008068   0x0000005c   Code   RO         2281    i.xTaskCheckForTimeOut  tasks.o
    0x000080c4   0x000080c4   0x00000110   Code   RO         2282    i.xTaskGenericCreate  tasks.o
    0x000081d4   0x000081d4   0x00000020   Code   RO         2286    i.xTaskGetSchedulerState  tasks.o
    0x000081f4   0x000081f4   0x0000000c   Code   RO         2287    i.xTaskGetTickCount  tasks.o
    0x00008200   0x00008200   0x00000120   Code   RO         2289    i.xTaskIncrementTick  tasks.o
    0x00008320   0x00008320   0x00000084   Code   RO         2292    i.xTaskPriorityDisinherit  tasks.o
    0x000083a4   0x000083a4   0x00000080   Code   RO         2293    i.xTaskRemoveFromEventList  tasks.o
    0x00008424   0x00008424   0x00000070   Code   RO         2294    i.xTaskRemoveFromUnorderedEventList  tasks.o
    0x00008494   0x00008494   0x000000e8   Code   RO         2295    i.xTaskResumeAll    tasks.o
    0x0000857c   0x0000857c   0x0000003e   Code   RO         2584    i.xTimerCreate      timers.o
    0x000085ba   0x000085ba   0x00000002   PAD
    0x000085bc   0x000085bc   0x00000040   Code   RO         2585    i.xTimerCreateTimerTask  timers.o
    0x000085fc   0x000085fc   0x0000006c   Code   RO         2586    i.xTimerGenericCommand  timers.o
    0x00008668   0x00008668   0x0000005e   Code   RO         1028    i.xmit_datablock    fatfs_port_tm4c1294.o
    0x000086c6   0x000086c6   0x00000002   PAD
    0x000086c8   0x000086c8   0x00000028   Code   RO         1029    i.xmit_spi          fatfs_port_tm4c1294.o
    0x000086f0   0x000086f0   0x00000080   Data   RO          383    .constdata          application.o
    0x00008770   0x00008770   0x00000a74   Data   RO          481    .constdata          tft.o
    0x000091e4   0x000091e4   0x00000030   Data   RO          686    .constdata          touch.o
    0x00009214   0x00009214   0x00000020   Data   RO         1264    .constdata          pca9557.o
    0x00009234   0x00009234   0x00000818   Data   RO         1369    .constdata          oled_i2c.o
    0x00009a4c   0x00009a4c   0x00000228   Data   RO         3387    .constdata          driverlib.lib(gpio.o)
    0x00009c74   0x00009c74   0x0000010c   Data   RO         3999    .constdata          driverlib.lib(interrupt.o)
    0x00009d80   0x00009d80   0x00000254   Data   RO         4303    .constdata          driverlib.lib(sysctl.o)
    0x00009fd4   0x00009fd4   0x000000a0   Data   RO         4633    .constdata          driverlib.lib(timer.o)
    0x0000a074   0x0000a074   0x00000020   Data   RO         5508    Region$$Table       anon$$obj.o


    Execution Region RW_IRAM1 (Exec base: 0x20000000, Load base: 0x0000a094, Size: 0x0002c058, Max: 0x00040000, ABSOLUTE, COMPRESSED[0x00000194])

    Exec Addr    Load Addr    Size         Type   Attr      Idx    E Section Name        Object

    0x20000000   COMPRESSED   0x00000034   Data   RW          203    .data               control.o
    0x20000034   COMPRESSED   0x0000005a   Data   RW          280    .data               bmp.o
    0x2000008e   COMPRESSED   0x00000002   PAD
    0x20000090   COMPRESSED   0x000000ad   Data   RW          384    .data               application.o
    0x2000013d   COMPRESSED   0x00000003   PAD
    0x20000140   COMPRESSED   0x00000196   Data   RW          482    .data               tft.o
    0x200002d6   COMPRESSED   0x00000005   Data   RW         1030    .data               fatfs_port_tm4c1294.o
    0x200002db   COMPRESSED   0x00000002   Data   RW         1265    .data               pca9557.o
    0x200002dd   COMPRESSED   0x00000032   Data   RW         1459    .data               pn532.o
    0x2000030f   COMPRESSED   0x00000001   PAD
    0x20000310   COMPRESSED   0x00000006   Data   RW         1669    .data               ff.o
    0x20000316   COMPRESSED   0x00000002   PAD
    0x20000318   COMPRESSED   0x00000018   Data   RW         1905    .data               heap_2.o
    0x20000330   COMPRESSED   0x00000004   Data   RW         1985    .data               port.o
    0x20000334   COMPRESSED   0x00000038   Data   RW         2298    .data               tasks.o
    0x2000036c   COMPRESSED   0x00000010   Data   RW         2589    .data               timers.o
    0x2000037c   COMPRESSED   0x00000004   Data   RW         5493    .data               mc_w.l(mvars.o)
    0x20000380   COMPRESSED   0x00000004   Data   RW         5494    .data               mc_w.l(mvars.o)
    0x20000384   COMPRESSED   0x0000007c   PAD
    0x20000400   COMPRESSED   0x0000026c   Data   RW         4000    vtable              driverlib.lib(interrupt.o)
    0x2000066c        -       0x000009ba   Zero   RW          279    .bss                bmp.o
    0x20001026   COMPRESSED   0x00000002   PAD
    0x20001028        -       0x00000565   Zero   RW          382    .bss                application.o
    0x2000158d        -       0x00000028   Zero   RW         1458    .bss                pn532.o
    0x200015b5        -       0x00013880   Zero   RW         1904    .bss                heap_2.o
    0x20014e35   COMPRESSED   0x00000003   PAD
    0x20014e38        -       0x00000050   Zero   RW         2074    .bss                queue.o
    0x20014e88        -       0x000001a4   Zero   RW         2297    .bss                tasks.o
    0x2001502c        -       0x00000028   Zero   RW         2588    .bss                timers.o
    0x20015054   COMPRESSED   0x00000004   PAD
    0x20015058        -       0x0000f000   Zero   RW          449    HEAP                startup_rvmdk.o
    0x20024058        -       0x00008000   Zero   RW          448    STACK               startup_rvmdk.o


==============================================================================

Image component sizes


      Code (inc. data)   RO Data    RW Data    ZI Data      Debug   Object Name

       508          0          0          0          0       2942   accelerator.o
       252         24          0          0          0       1776   adc.o
      1910        326        128        173       1381       9104   application.o
       334         26          0         90       2490       7735   bmp.o
       120         18          0          0          0       1100   buzzer.o
       192         72          0         52          0       4927   control.o
       248         52          0          0          0        622   epiinit.o
       402          6          0          0          0       5075   event_groups.o
      2220        156          0          5          0      16604   fatfs_port_tm4c1294.o
      5122         44          0          6          0      35566   ff.o
       304         46          0         24      80000       3771   heap_2.o
       838         66          0          0          0       8931   i2c.o
       340         46          0          0          0       1740   infrared.o
        98          0          0          0          0       1043   kalmanfilter.o
       340         50          0          0          0       1582   led.o
       148          0          0          0          0       3550   list.o
         8          0          0          0          0      21523   main.o
       936         58       2072          0          0       7147   oled_i2c.o
       964         92         32          2          0      13943   pca9557.o
       214         38          0         50         40       3717   pn532.o
       456         56          0          4          0      15496   port.o
      1492         20          0          0         80      24245   queue.o
       648        620          0          0      94208        292   startup_rvmdk.o
      2750        418          0         56        420      25909   tasks.o
      3996        166       2676        406          0      17772   tft.o
       148         30          0          0          0       1018   timer.o
      1048        112          0         16         40      10130   timers.o
       822         56         48          0          0       4973   touch.o
       222         44          0          0          0       2309   usart.o

    ----------------------------------------------------------------------
     27120       2642       4988        892     178668     254542   Object Totals
         0          0         32          0          0          0   (incl. Generated)
        40          0          0          8          9          0   (incl. Padding)

    ----------------------------------------------------------------------

      Code (inc. data)   RO Data    RW Data    ZI Data      Debug   Library Member Name

       388          0          0          0          0       8578   adc.o
        38          0          0          0          0        552   cpu.o
        40          0          0          0          0       1571   epi.o
        32          8          0          0          0        872   fpu.o
       860         26        552          0          0      11927   gpio.o
       162         12          0          0          0       5076   i2c.o
       206         20        268        620          0       3285   interrupt.o
       114          0          0          0          0       3727   ssi.o
       818         50        596          0          0       5700   sysctl.o
       254         24        160          0          0       5311   timer.o
       134          0          0          0          0       2691   uart.o
        94          0          0          0          0          0   __dclz77c.o
         0          0          0          0          0          0   entry.o
         0          0          0          0          0          0   entry10a.o
         0          0          0          0          0          0   entry11a.o
         8          4          0          0          0          0   entry2.o
         4          0          0          0          0          0   entry5.o
         0          0          0          0          0          0   entry7b.o
         0          0          0          0          0          0   entry8b.o
         8          4          0          0          0          0   entry9a.o
        30          0          0          0          0          0   handlers.o
        36          8          0          0          0         68   init.o
         0          0          0          0          0          0   iusefp.o
        30          0          0          0          0         68   llshl.o
        36          0          0          0          0         68   llsshr.o
        32          0          0          0          0         68   llushr.o
       188         20          0          0          0        160   malloc.o
        36          0          0          0          0         68   memcpya.o
        36          0          0          0          0        108   memseta.o
         0          0          0          8          0          0   mvars.o
      2276         86          0          0          0        520   printfa.o
        44          0          0          0          0         80   uidiv.o
        98          0          0          0          0         92   uldiv.o
        48          0          0          0          0         68   cdrcmple.o
        56          0          0          0          0         88   d2f.o
       334          0          0          0          0        148   dadd.o
       222          0          0          0          0        100   ddiv.o
       186          0          0          0          0        176   depilogue.o
        62          0          0          0          0         80   dfixi.o
        50          0          0          0          0         76   dfixui.o
        48          0          0          0          0         68   dfixul.o
        26          0          0          0          0         76   dfltui.o
       228          0          0          0          0         96   dmul.o
        38          0          0          0          0         68   f2d.o
       110          0          0          0          0        168   fepilogue.o

    ----------------------------------------------------------------------
      7424        262       1576        752          0      51802   Library Totals
        14          0          0        124          0          0   (incl. Padding)

    ----------------------------------------------------------------------

      Code (inc. data)   RO Data    RW Data    ZI Data      Debug   Library Name

      3046        140       1576        620          0      49290   driverlib.lib
      2956        122          0          8          0       1300   mc_w.l
      1408          0          0          0          0       1212   mf_w.l

    ----------------------------------------------------------------------
      7424        262       1576        752          0      51802   Library Totals

    ----------------------------------------------------------------------

==============================================================================


      Code (inc. data)   RO Data    RW Data    ZI Data      Debug   

     34544       2904       6564       1644     178668     277028   Grand Totals
     34544       2904       6564        404     178668     277028   ELF Image Totals (compressed)
     34544       2904       6564        404          0          0   ROM Totals

==============================================================================

    Total RO  Size (Code + RO Data)                41108 (  40.14kB)
    Total RW  Size (RW Data + ZI Data)            180312 ( 176.09kB)
    Total ROM Size (Code + RO Data + RW Data)      41512 (  40.54kB)

==============================================================================

